---
triple:          'arm64-apple-darwin'
binary-path:     is
relocations:
  - { offsetInCU: 0x3B, offset: 0x3B, size: 0x8, addend: 0x0, symName: _.str, symObjAddr: 0x986C0, symBinAddr: 0x100082CC0, symSize: 0x0 }
  - { offsetInCU: 0x504, offset: 0x504, size: 0x8, addend: 0x0, symName: __ZN3ppc14make_stopwatchEv, symObjAddr: 0x0, symBinAddr: 0x1000023B4, symSize: 0x228 }
  - { offsetInCU: 0x521, offset: 0x521, size: 0x8, addend: 0x0, symName: __ZN3ppc11get_cputimeEv, symObjAddr: 0x2BD4, symBinAddr: 0x100004F88, symSize: 0x648 }
  - { offsetInCU: 0x57E, offset: 0x57E, size: 0x8, addend: 0x0, symName: __ZN3ppc17setup_cuda_deviceEv, symObjAddr: 0x61CE0, symBinAddr: 0x100064094, symSize: 0x4 }
  - { offsetInCU: 0x62A, offset: 0x62A, size: 0x8, addend: 0x0, symName: __ZN3ppc17reset_cuda_deviceEv, symObjAddr: 0x62BB4, symBinAddr: 0x100064F68, symSize: 0x4 }
  - { offsetInCU: 0x674, offset: 0x674, size: 0x8, addend: 0x0, symName: _.str.5, symObjAddr: 0x986E0, symBinAddr: 0x100082CE0, symSize: 0x0 }
  - { offsetInCU: 0x691, offset: 0x691, size: 0x8, addend: 0x0, symName: _.str.6, symObjAddr: 0x98700, symBinAddr: 0x100082D00, symSize: 0x0 }
  - { offsetInCU: 0x6A2, offset: 0x6A2, size: 0x8, addend: 0x0, symName: _.str.7, symObjAddr: 0x98720, symBinAddr: 0x100082D20, symSize: 0x0 }
  - { offsetInCU: 0x6BF, offset: 0x6BF, size: 0x8, addend: 0x0, symName: _.str.8, symObjAddr: 0x98760, symBinAddr: 0x100082D60, symSize: 0x0 }
  - { offsetInCU: 0x6EA, offset: 0x6EA, size: 0x8, addend: 0x0, symName: __ZNSt3__119piecewise_constructE, symObjAddr: 0x770D8, symBinAddr: 0x100077498, symSize: 0x0 }
  - { offsetInCU: 0xF327, offset: 0xF327, size: 0x8, addend: 0x0, symName: __ZNSt3__16chronoplB8ue170006IxNS_5ratioILl1ELl1EEExNS2_ILl1ELl1000000EEEEENS_11common_typeIJNS0_8durationIT_T0_EENS6_IT1_T2_EEEE4typeERKS9_RKSC_, symObjAddr: 0x321C, symBinAddr: 0x1000055D0, symSize: 0x3A4 }
  - { offsetInCU: 0xF42C, offset: 0xF42C, size: 0x8, addend: 0x0, symName: __ZNSt3__16chronomiB8ue170006IxNS_5ratioILl1ELl1000000000EEExS3_EENS_11common_typeIJNS0_8durationIT_T0_EENS5_IT1_T2_EEEE4typeERKS8_RKSB_, symObjAddr: 0x4B5C, symBinAddr: 0x100006F10, symSize: 0x35C }
  - { offsetInCU: 0xF4EA, offset: 0xF4EA, size: 0x8, addend: 0x0, symName: __ZNSt3__16chrono13duration_castB8ue170006INS0_8durationIxNS_5ratioILl1ELl1000000000EEEEExNS3_ILl1ELl1000000EEEEENS_9enable_ifIXsr13__is_durationIT_EE5valueES8_E4typeERKNS2_IT0_T1_EE, symObjAddr: 0x36D0, symBinAddr: 0x100005A84, symSize: 0x2CC }
  - { offsetInCU: 0xF532, offset: 0xF532, size: 0x8, addend: 0x0, symName: __ZNSt3__16chrono13duration_castB8ue170006INS0_8durationIxNS_5ratioILl1ELl1000000EEEEExNS3_ILl1ELl1EEEEENS_9enable_ifIXsr13__is_durationIT_EE5valueES8_E4typeERKNS2_IT0_T1_EE, symObjAddr: 0x3E5C, symBinAddr: 0x100006210, symSize: 0x2CC }
  - { offsetInCU: 0xF57A, offset: 0xF57A, size: 0x8, addend: 0x0, symName: __ZNSt3__16chronomiB8ue170006INS0_12steady_clockENS0_8durationIxNS_5ratioILl1ELl1000000000EEEEES6_EENS_11common_typeIJT0_T1_EE4typeERKNS0_10time_pointIT_S8_EERKNSC_ISD_S9_EE, symObjAddr: 0x6A0E8, symBinAddr: 0x10006C49C, symSize: 0x390 }
  - { offsetInCU: 0x12F50, offset: 0x12F50, size: 0x8, addend: 0x0, symName: __ZNSt3__124__put_character_sequenceB8ue170006IcNS_11char_traitsIcEEEERNS_13basic_ostreamIT_T0_EES7_PKS4_m, symObjAddr: 0x286DC, symBinAddr: 0x10002AA90, symSize: 0x103C }
  - { offsetInCU: 0x18537, offset: 0x18537, size: 0x8, addend: 0x0, symName: __ZNSt3__111make_uniqueB8ue170006IN3ppc6detail20PerfCountersFallbackEJEEENS_11__unique_ifIT_E15__unique_singleEDpOT0_, symObjAddr: 0x228, symBinAddr: 0x1000025DC, symSize: 0xEC }
  - { offsetInCU: 0x189C4, offset: 0x189C4, size: 0x8, addend: 0x0, symName: __ZNSt3__1eqB8ue170006IcNS_11char_traitsIcEENS_9allocatorIcEEEEbRKNS_12basic_stringIT_T0_T1_EEPKS6_, symObjAddr: 0x5100, symBinAddr: 0x1000074B4, symSize: 0x318 }
  - { offsetInCU: 0x18A1E, offset: 0x18A1E, size: 0x8, addend: 0x0, symName: __ZNSt3__1plB8ue170006IcNS_11char_traitsIcEENS_9allocatorIcEEEENS_12basic_stringIT_T0_T1_EEOS9_PKS6_, symObjAddr: 0x5418, symBinAddr: 0x1000077CC, symSize: 0xF4 }
  - { offsetInCU: 0x18A76, offset: 0x18A76, size: 0x8, addend: 0x0, symName: __ZNSt3__1eqB8ue170006IcNS_11char_traitsIcEEEEbNS_17basic_string_viewIT_T0_EES6_, symObjAddr: 0x550C, symBinAddr: 0x1000078C0, symSize: 0x348 }
  - { offsetInCU: 0x18ACD, offset: 0x18ACD, size: 0x8, addend: 0x0, symName: __ZNSt3__13minB8ue170006ImEERKT_S3_S3_, symObjAddr: 0x60AC, symBinAddr: 0x100008460, symSize: 0x104 }
  - { offsetInCU: 0x18B10, offset: 0x18B10, size: 0x8, addend: 0x0, symName: __ZNSt3__13minB8ue170006ImNS_6__lessIvvEEEERKT_S5_S5_T0_, symObjAddr: 0x6290, symBinAddr: 0x100008644, symSize: 0x2C0 }
  - { offsetInCU: 0x18BE9, offset: 0x18BE9, size: 0x8, addend: 0x0, symName: __ZNSt3__112__to_addressB8ue170006IKcEEPT_S3_, symObjAddr: 0x67CC, symBinAddr: 0x100008B80, symSize: 0x14 }
  - { offsetInCU: 0x18C51, offset: 0x18C51, size: 0x8, addend: 0x0, symName: __ZNSt3__128__char_traits_length_checkedB8ue170006INS_11char_traitsIcEEEEmPKNT_9char_typeE, symObjAddr: 0x765C, symBinAddr: 0x100009A10, symSize: 0x24 }
  - { offsetInCU: 0x18C88, offset: 0x18C88, size: 0x8, addend: 0x0, symName: __ZNSt3__118__constexpr_strlenB8ue170006EPKc, symObjAddr: 0x76C0, symBinAddr: 0x100009A74, symSize: 0x24 }
  - { offsetInCU: 0x18CEB, offset: 0x18CEB, size: 0x8, addend: 0x0, symName: __ZNSt3__116forward_as_tupleB8ue170006IJNS_12basic_stringIcNS_11char_traitsIcEENS_9allocatorIcEEEEEEENS_5tupleIJDpOT_EEESA_, symObjAddr: 0xC150, symBinAddr: 0x10000E504, symSize: 0x244 }
  - { offsetInCU: 0x18D26, offset: 0x18D26, size: 0x8, addend: 0x0, symName: __ZNSt3__116forward_as_tupleB8ue170006IJEEENS_5tupleIJDpOT_EEES4_, symObjAddr: 0xC394, symBinAddr: 0x10000E748, symSize: 0x4 }
  - { offsetInCU: 0x18D4A, offset: 0x18D4A, size: 0x8, addend: 0x0, symName: __ZNSt3__116__constrain_hashB8ue170006Emm, symObjAddr: 0xC884, symBinAddr: 0x10000EC38, symSize: 0xDC }
  - { offsetInCU: 0x18D84, offset: 0x18D84, size: 0x8, addend: 0x0, symName: __ZNSt3__13maxB8ue170006ImEERKT_S3_S3_, symObjAddr: 0xDC64, symBinAddr: 0x100010018, symSize: 0x104 }
  - { offsetInCU: 0x18DC8, offset: 0x18DC8, size: 0x8, addend: 0x0, symName: __ZNSt3__116__is_hash_power2B8ue170006Em, symObjAddr: 0xDD68, symBinAddr: 0x10001011C, symSize: 0x50 }
  - { offsetInCU: 0x18DF4, offset: 0x18DF4, size: 0x8, addend: 0x0, symName: __ZNSt3__116__do_string_hashB8ue170006IPKcEEmT_S3_, symObjAddr: 0xE910, symBinAddr: 0x100010CC4, symSize: 0x1EC }
  - { offsetInCU: 0x18E3C, offset: 0x18E3C, size: 0x8, addend: 0x0, symName: __ZNSt3__110__loadwordB8ue170006ImEET_PKv, symObjAddr: 0x12074, symBinAddr: 0x100014428, symSize: 0x214 }
  - { offsetInCU: 0x18E84, offset: 0x18E84, size: 0x8, addend: 0x0, symName: __ZNSt3__14swapB8ue170006ImEENS_9enable_ifIXaasr21is_move_constructibleIT_EE5valuesr18is_move_assignableIS2_EE5valueEvE4typeERS2_S5_, symObjAddr: 0x12B08, symBinAddr: 0x100014EBC, symSize: 0x1C0 }
  - { offsetInCU: 0x18ED5, offset: 0x18ED5, size: 0x8, addend: 0x0, symName: __ZNSt3__110__loadwordB8ue170006IjEET_PKv, symObjAddr: 0x12E14, symBinAddr: 0x1000151C8, symSize: 0x240 }
  - { offsetInCU: 0x18F1D, offset: 0x18F1D, size: 0x8, addend: 0x0, symName: __ZNSt3__1eqB8ue170006INS_9allocatorIcEEEEbRKNS_12basic_stringIcNS_11char_traitsIcEET_EES9_, symObjAddr: 0x14150, symBinAddr: 0x100016504, symSize: 0x458 }
  - { offsetInCU: 0x18F90, offset: 0x18F90, size: 0x8, addend: 0x0, symName: __ZNSt3__17launderB8ue170006IKNS_4pairIKNS_12basic_stringIcNS_11char_traitsIcEENS_9allocatorIcEEEElEEEEPT_SC_, symObjAddr: 0x145A8, symBinAddr: 0x10001695C, symSize: 0x24 }
  - { offsetInCU: 0x18FC8, offset: 0x18FC8, size: 0x8, addend: 0x0, symName: __ZNSt3__19__launderB8ue170006IKNS_4pairIKNS_12basic_stringIcNS_11char_traitsIcEENS_9allocatorIcEEEElEEEEPT_SC_, symObjAddr: 0x145CC, symBinAddr: 0x100016980, symSize: 0x14 }
  - { offsetInCU: 0x19050, offset: 0x19050, size: 0x8, addend: 0x0, symName: __ZNSt3__117__libcpp_allocateB8ue170006Emm, symObjAddr: 0x14DA4, symBinAddr: 0x100017158, symSize: 0x60 }
  - { offsetInCU: 0x190AC, offset: 0x190AC, size: 0x8, addend: 0x0, symName: __ZNSt3__124__is_overaligned_for_newB8ue170006Em, symObjAddr: 0x14E20, symBinAddr: 0x1000171D4, symSize: 0x20 }
  - { offsetInCU: 0x190DA, offset: 0x190DA, size: 0x8, addend: 0x0, symName: __ZNSt3__121__libcpp_operator_newB8ue170006IJmSt11align_val_tEEEPvDpT_, symObjAddr: 0x14E40, symBinAddr: 0x1000171F4, symSize: 0x6C }
  - { offsetInCU: 0x19127, offset: 0x19127, size: 0x8, addend: 0x0, symName: __ZNSt3__121__libcpp_operator_newB8ue170006IJmEEEPvDpT_, symObjAddr: 0x14EAC, symBinAddr: 0x100017260, symSize: 0x24 }
  - { offsetInCU: 0x19187, offset: 0x19187, size: 0x8, addend: 0x0, symName: __ZNSt3__112construct_atB8ue170006INS_4pairIKNS_12basic_stringIcNS_11char_traitsIcEENS_9allocatorIcEEEElEEJRKNS_21piecewise_construct_tENS_5tupleIJOS7_EEENSD_IJEEEEPS9_EEPT_SJ_DpOT0_, symObjAddr: 0x15730, symBinAddr: 0x100017AE4, symSize: 0x2A8 }
  - { offsetInCU: 0x19230, offset: 0x19230, size: 0x8, addend: 0x0, symName: __ZNSt3__13getB8ue170006ILm0EJONS_12basic_stringIcNS_11char_traitsIcEENS_9allocatorIcEEEEEEERNS_13tuple_elementIXT_ENS_5tupleIJDpT0_EEEE4typeERSC_, symObjAddr: 0x15E64, symBinAddr: 0x100018218, symSize: 0xE0 }
  - { offsetInCU: 0x19273, offset: 0x19273, size: 0x8, addend: 0x0, symName: __ZNSt3__116__next_hash_pow2B8ue170006Em, symObjAddr: 0x18000, symBinAddr: 0x10001A3B4, symSize: 0xCC }
  - { offsetInCU: 0x192A0, offset: 0x192A0, size: 0x8, addend: 0x0, symName: __ZNSt3__119__libcpp_deallocateB8ue170006EPvmm, symObjAddr: 0x18DA0, symBinAddr: 0x10001B154, symSize: 0x60 }
  - { offsetInCU: 0x19307, offset: 0x19307, size: 0x8, addend: 0x0, symName: __ZNSt3__127__do_deallocate_handle_sizeB8ue170006IJSt11align_val_tEEEvPvmDpT_, symObjAddr: 0x18E00, symBinAddr: 0x10001B1B4, symSize: 0x30 }
  - { offsetInCU: 0x1935B, offset: 0x1935B, size: 0x8, addend: 0x0, symName: __ZNSt3__127__do_deallocate_handle_sizeB8ue170006IJEEEvPvmDpT_, symObjAddr: 0x18E30, symBinAddr: 0x10001B1E4, symSize: 0x28 }
  - { offsetInCU: 0x1939A, offset: 0x1939A, size: 0x8, addend: 0x0, symName: __ZNSt3__124__libcpp_operator_deleteB8ue170006IJPvSt11align_val_tEEEvDpT_, symObjAddr: 0x18E58, symBinAddr: 0x10001B20C, symSize: 0x2C }
  - { offsetInCU: 0x193E4, offset: 0x193E4, size: 0x8, addend: 0x0, symName: __ZNSt3__124__libcpp_operator_deleteB8ue170006IJPvEEEvDpT_, symObjAddr: 0x18E84, symBinAddr: 0x10001B238, symSize: 0x24 }
  - { offsetInCU: 0x1941A, offset: 0x1941A, size: 0x8, addend: 0x0, symName: __ZNSt3__112__libcpp_clzB8ue170006Em, symObjAddr: 0x190EC, symBinAddr: 0x10001B4A0, symSize: 0x1C }
  - { offsetInCU: 0x19446, offset: 0x19446, size: 0x8, addend: 0x0, symName: __ZNSt3__13maxB8ue170006ImNS_6__lessIvvEEEERKT_S5_S5_T0_, symObjAddr: 0x19108, symBinAddr: 0x10001B4BC, symSize: 0x2C0 }
  - { offsetInCU: 0x194A7, offset: 0x194A7, size: 0x8, addend: 0x0, symName: __ZNSt3__110destroy_atB8ue170006INS_4pairIKNS_12basic_stringIcNS_11char_traitsIcEENS_9allocatorIcEEEElEELi0EEEvPT_, symObjAddr: 0x19E78, symBinAddr: 0x10001C22C, symSize: 0x24 }
  - { offsetInCU: 0x194DF, offset: 0x194DF, size: 0x8, addend: 0x0, symName: __ZNSt3__112__destroy_atB8ue170006INS_4pairIKNS_12basic_stringIcNS_11char_traitsIcEENS_9allocatorIcEEEElEELi0EEEvPT_, symObjAddr: 0x19E9C, symBinAddr: 0x10001C250, symSize: 0x6C }
  - { offsetInCU: 0x1956D, offset: 0x1956D, size: 0x8, addend: 0x0, symName: __ZNSt3__17launderB8ue170006INS_4pairIKNS_12basic_stringIcNS_11char_traitsIcEENS_9allocatorIcEEEElEEEEPT_SB_, symObjAddr: 0x1A6F4, symBinAddr: 0x10001CAA8, symSize: 0x24 }
  - { offsetInCU: 0x195A5, offset: 0x195A5, size: 0x8, addend: 0x0, symName: __ZNSt3__19__launderB8ue170006INS_4pairIKNS_12basic_stringIcNS_11char_traitsIcEENS_9allocatorIcEEEElEEEEPT_SB_, symObjAddr: 0x1A718, symBinAddr: 0x10001CACC, symSize: 0x14 }
  - { offsetInCU: 0x195DC, offset: 0x195DC, size: 0x8, addend: 0x0, symName: __ZNSt3__1lsB8ue170006INS_11char_traitsIcEEEERNS_13basic_ostreamIcT_EES6_PKc, symObjAddr: 0x1F068, symBinAddr: 0x10002141C, symSize: 0xD0 }
  - { offsetInCU: 0x19622, offset: 0x19622, size: 0x8, addend: 0x0, symName: __ZNSt3__14endlB8ue170006IcNS_11char_traitsIcEEEERNS_13basic_ostreamIT_T0_EES7_, symObjAddr: 0x1F240, symBinAddr: 0x1000215F4, symSize: 0x3D8 }
  - { offsetInCU: 0x19ED1, offset: 0x19ED1, size: 0x8, addend: 0x0, symName: __ZNSt3__1rsB8ue170006IcNS_11char_traitsIcEENS_9allocatorIcEEEERNS_13basic_istreamIT_T0_EES9_RNS_12basic_stringIS6_S7_T1_EE, symObjAddr: 0x1FE2C, symBinAddr: 0x1000221E0, symSize: 0x1888 }
  - { offsetInCU: 0x1A7F4, offset: 0x1A7F4, size: 0x8, addend: 0x0, symName: __ZNSt3__111make_uniqueB8ue170006IN3ppc12fdostreambufEJRiEEENS_11__unique_ifIT_E15__unique_singleEDpOT0_, symObjAddr: 0x24518, symBinAddr: 0x1000268CC, symSize: 0x1A8 }
  - { offsetInCU: 0x1A836, offset: 0x1A836, size: 0x8, addend: 0x0, symName: __ZNSt3__116__pad_and_outputB8ue170006IcNS_11char_traitsIcEEEENS_19ostreambuf_iteratorIT_T0_EES6_PKS4_S8_S8_RNS_8ios_baseES4_, symObjAddr: 0x2981C, symBinAddr: 0x10002BBD0, symSize: 0xB88 }
  - { offsetInCU: 0x1A914, offset: 0x1A914, size: 0x8, addend: 0x0, symName: __ZNSt3__112__to_addressB8ue170006IcEEPT_S2_, symObjAddr: 0x2B32C, symBinAddr: 0x10002D6E0, symSize: 0x14 }
  - { offsetInCU: 0x1A949, offset: 0x1A949, size: 0x8, addend: 0x0, symName: __ZNSt3__19use_facetB8ue170006INS_5ctypeIcEEEERKT_RKNS_6localeE, symObjAddr: 0x2C17C, symBinAddr: 0x10002E530, symSize: 0x188 }
  - { offsetInCU: 0x1AD28, offset: 0x1AD28, size: 0x8, addend: 0x0, symName: __ZNSt3__111make_uniqueB8ue170006IN12_GLOBAL__N_112RectTestCaseEJRiS3_bbEEENS_11__unique_ifIT_E15__unique_singleEDpOT0_, symObjAddr: 0x2F0B4, symBinAddr: 0x100031468, symSize: 0x3E4 }
  - { offsetInCU: 0x1ADA7, offset: 0x1ADA7, size: 0x8, addend: 0x0, symName: __ZNSt3__111make_uniqueB8ue170006IN12_GLOBAL__N_116GradientTestCaseEJRiS3_EEENS_11__unique_ifIT_E15__unique_singleEDpOT0_, symObjAddr: 0x2F590, symBinAddr: 0x100031944, symSize: 0x25C }
  - { offsetInCU: 0x1ADFE, offset: 0x1ADFE, size: 0x8, addend: 0x0, symName: __ZNSt3__111make_uniqueB8ue170006IN12_GLOBAL__N_115VoronoiTestCaseEJRiS3_RbS3_RfS5_RNS1_4RectEEEENS_11__unique_ifIT_E15__unique_singleEDpOT0_, symObjAddr: 0x2F8E4, symBinAddr: 0x100031C98, symSize: 0x800 }
  - { offsetInCU: 0x1AEC0, offset: 0x1AEC0, size: 0x8, addend: 0x0, symName: __ZNSt3__111make_uniqueB8ue170006IN12_GLOBAL__N_19FixedTestEJRiS3_RNS_13basic_istreamIcNS_11char_traitsIcEEEEEEENS_11__unique_ifIT_E15__unique_singleEDpOT0_, symObjAddr: 0x301DC, symBinAddr: 0x100032590, symSize: 0x2B4 }
  - { offsetInCU: 0x1B13B, offset: 0x1B13B, size: 0x8, addend: 0x0, symName: __ZNSt3__13maxB8ue170006IfEET_St16initializer_listIS1_E, symObjAddr: 0x37678, symBinAddr: 0x100039A2C, symSize: 0x2BC }
  - { offsetInCU: 0x1B174, offset: 0x1B174, size: 0x8, addend: 0x0, symName: __ZNSt3__111max_elementB8ue170006IPKfNS_6__lessIvvEEEET_S5_S5_T0_, symObjAddr: 0x3794C, symBinAddr: 0x100039D00, symSize: 0x1C4 }
  - { offsetInCU: 0x1B1D4, offset: 0x1B1D4, size: 0x8, addend: 0x0, symName: __ZNSt3__113__max_elementB8ue170006IRNS_6__lessIvvEEPKfEET0_S6_S6_T_, symObjAddr: 0x37D7C, symBinAddr: 0x10003A130, symSize: 0x1D4 }
  - { offsetInCU: 0x1B24B, offset: 0x1B24B, size: 0x8, addend: 0x0, symName: __ZNSt3__122__make_exception_guardB8ue170006INS_6vectorIfNS_9allocatorIfEEE16__destroy_vectorEEENS_28__exception_guard_exceptionsIT_EES7_, symObjAddr: 0x38630, symBinAddr: 0x10003A9E4, symSize: 0x2BC }
  - { offsetInCU: 0x1B284, offset: 0x1B284, size: 0x8, addend: 0x0, symName: __ZNSt3__119__allocate_at_leastB8ue170006INS_9allocatorIfEEEENS_19__allocation_resultINS_16allocator_traitsIT_E7pointerEEERS5_m, symObjAddr: 0x3A424, symBinAddr: 0x10003C7D8, symSize: 0x28C }
  - { offsetInCU: 0x1B2CA, offset: 0x1B2CA, size: 0x8, addend: 0x0, symName: __ZNSt3__120__throw_length_errorB8ue170006EPKc, symObjAddr: 0x3AEA8, symBinAddr: 0x10003D25C, symSize: 0xB4 }
  - { offsetInCU: 0x1B2F5, offset: 0x1B2F5, size: 0x8, addend: 0x0, symName: __ZNSt3__112__to_addressB8ue170006IfEEPT_S2_, symObjAddr: 0x3B7AC, symBinAddr: 0x10003DB60, symSize: 0x14 }
  - { offsetInCU: 0x1B351, offset: 0x1B351, size: 0x8, addend: 0x0, symName: __ZNSt3__112construct_atB8ue170006IfJEPfEEPT_S3_DpOT0_, symObjAddr: 0x3C4D4, symBinAddr: 0x10003E888, symSize: 0x128 }
  - { offsetInCU: 0x1B3B0, offset: 0x1B3B0, size: 0x8, addend: 0x0, symName: __ZNSt3__110destroy_atB8ue170006IfLi0EEEvPT_, symObjAddr: 0x3D91C, symBinAddr: 0x10003FCD0, symSize: 0x24 }
  - { offsetInCU: 0x1B3E8, offset: 0x1B3E8, size: 0x8, addend: 0x0, symName: __ZNSt3__112__destroy_atB8ue170006IfLi0EEEvPT_, symObjAddr: 0x3D940, symBinAddr: 0x10003FCF4, symSize: 0x10 }
  - { offsetInCU: 0x1B581, offset: 0x1B581, size: 0x8, addend: 0x0, symName: __ZNSt3__112construct_atB8ue170006IfJRKfEPfEEPT_S5_DpOT0_, symObjAddr: 0x524C8, symBinAddr: 0x10005487C, symSize: 0x1D8 }
  - { offsetInCU: 0x1B5F3, offset: 0x1B5F3, size: 0x8, addend: 0x0, symName: __ZNSt3__122__make_exception_guardB8ue170006INS_6vectorIiNS_9allocatorIiEEE16__destroy_vectorEEENS_28__exception_guard_exceptionsIT_EES7_, symObjAddr: 0x52C44, symBinAddr: 0x100054FF8, symSize: 0x2BC }
  - { offsetInCU: 0x1B62C, offset: 0x1B62C, size: 0x8, addend: 0x0, symName: __ZNSt3__119__allocate_at_leastB8ue170006INS_9allocatorIiEEEENS_19__allocation_resultINS_16allocator_traitsIT_E7pointerEEERS5_m, symObjAddr: 0x54A38, symBinAddr: 0x100056DEC, symSize: 0x28C }
  - { offsetInCU: 0x1B672, offset: 0x1B672, size: 0x8, addend: 0x0, symName: __ZNSt3__112__to_addressB8ue170006IiEEPT_S2_, symObjAddr: 0x55B64, symBinAddr: 0x100057F18, symSize: 0x14 }
  - { offsetInCU: 0x1B6CE, offset: 0x1B6CE, size: 0x8, addend: 0x0, symName: __ZNSt3__112construct_atB8ue170006IiJEPiEEPT_S3_DpOT0_, symObjAddr: 0x5688C, symBinAddr: 0x100058C40, symSize: 0x124 }
  - { offsetInCU: 0x1B72D, offset: 0x1B72D, size: 0x8, addend: 0x0, symName: __ZNSt3__110destroy_atB8ue170006IiLi0EEEvPT_, symObjAddr: 0x57CD0, symBinAddr: 0x10005A084, symSize: 0x24 }
  - { offsetInCU: 0x1B765, offset: 0x1B765, size: 0x8, addend: 0x0, symName: __ZNSt3__112__destroy_atB8ue170006IiLi0EEEvPT_, symObjAddr: 0x57CF4, symBinAddr: 0x10005A0A8, symSize: 0x10 }
  - { offsetInCU: 0x1B79C, offset: 0x1B79C, size: 0x8, addend: 0x0, symName: __ZNSt3__130__uninitialized_allocator_copyB8ue170006INS_9allocatorIfEEPfS3_S3_EET2_RT_T0_T1_S4_, symObjAddr: 0x5D540, symBinAddr: 0x10005F8F4, symSize: 0x334 }
  - { offsetInCU: 0x1B842, offset: 0x1B842, size: 0x8, addend: 0x0, symName: __ZNSt3__114__unwrap_rangeB8ue170006IPfS1_EEDaT_T0_, symObjAddr: 0x5D874, symBinAddr: 0x10005FC28, symSize: 0x224 }
  - { offsetInCU: 0x1B890, offset: 0x1B890, size: 0x8, addend: 0x0, symName: __ZNSt3__135__uninitialized_allocator_copy_implB8ue170006INS_9allocatorIfEEfffLPv0EEEPT2_RT_PT0_S9_S5_, symObjAddr: 0x5DA98, symBinAddr: 0x10005FE4C, symSize: 0x38 }
  - { offsetInCU: 0x1B912, offset: 0x1B912, size: 0x8, addend: 0x0, symName: __ZNSt3__113__unwrap_iterB8ue170006IPfNS_18__unwrap_iter_implIS1_Lb1EEELi0EEEDTclsrT0_8__unwrapclsr3stdE7declvalIT_EEEES5_, symObjAddr: 0x5DAD0, symBinAddr: 0x10005FE84, symSize: 0x24 }
  - { offsetInCU: 0x1B956, offset: 0x1B956, size: 0x8, addend: 0x0, symName: __ZNSt3__113__rewrap_iterB8ue170006IPfS1_NS_18__unwrap_iter_implIS1_Lb1EEEEET_S4_T0_, symObjAddr: 0x5DAF4, symBinAddr: 0x10005FEA8, symSize: 0x48 }
  - { offsetInCU: 0x1BAF6, offset: 0x1BAF6, size: 0x8, addend: 0x0, symName: __ZNSt3__14copyB8ue170006IPfS1_EET0_T_S3_S2_, symObjAddr: 0x5E0E0, symBinAddr: 0x100060494, symSize: 0x2B4 }
  - { offsetInCU: 0x1BB53, offset: 0x1BB53, size: 0x8, addend: 0x0, symName: __ZNSt3__16__copyB8ue170006INS_17_ClassicAlgPolicyEPfS2_S2_EENS_4pairIT0_T2_EES4_T1_S5_, symObjAddr: 0x5E394, symBinAddr: 0x100060748, symSize: 0x22C }
  - { offsetInCU: 0x1BBC2, offset: 0x1BBC2, size: 0x8, addend: 0x0, symName: __ZNSt3__123__dispatch_copy_or_moveB8ue170006INS_17_ClassicAlgPolicyENS_11__copy_loopIS1_EENS_14__copy_trivialEPfS5_S5_EENS_4pairIT2_T4_EES7_T3_S8_, symObjAddr: 0x5E5C0, symBinAddr: 0x100060974, symSize: 0x22C }
  - { offsetInCU: 0x1BC43, offset: 0x1BC43, size: 0x8, addend: 0x0, symName: __ZNSt3__121__unwrap_and_dispatchB8ue170006INS_10__overloadINS_11__copy_loopINS_17_ClassicAlgPolicyEEENS_14__copy_trivialEEEPfS7_S7_Li0EEENS_4pairIT0_T2_EES9_T1_SA_, symObjAddr: 0x5E7EC, symBinAddr: 0x100060BA0, symSize: 0x634 }
  - { offsetInCU: 0x1BD22, offset: 0x1BD22, size: 0x8, addend: 0x0, symName: __ZNSt3__19make_pairB8ue170006IPfS1_EENS_4pairINS_18__unwrap_ref_decayIT_E4typeENS3_IT0_E4typeEEEOS4_OS7_, symObjAddr: 0x5F07C, symBinAddr: 0x100061430, symSize: 0x2A0 }
  - { offsetInCU: 0x1BD73, offset: 0x1BD73, size: 0x8, addend: 0x0, symName: __ZNSt3__114__rewrap_rangeB8ue170006IPfS1_S1_EET0_S2_T1_, symObjAddr: 0x5F31C, symBinAddr: 0x1000616D0, symSize: 0x2C }
  - { offsetInCU: 0x1BDC8, offset: 0x1BDC8, size: 0x8, addend: 0x0, symName: __ZNSt3__119__copy_trivial_implB8ue170006IffEENS_4pairIPT_PT0_EES3_S3_S5_, symObjAddr: 0x5F348, symBinAddr: 0x1000616FC, symSize: 0x480 }
  - { offsetInCU: 0x1BE37, offset: 0x1BE37, size: 0x8, addend: 0x0, symName: __ZNSt3__119__constexpr_memmoveB8ue170006IffLi0EEEPT_S2_PT0_NS_15__element_countE, symObjAddr: 0x5F7C8, symBinAddr: 0x100061B7C, symSize: 0x64 }
  - { offsetInCU: 0x1BEA5, offset: 0x1BEA5, size: 0x8, addend: 0x0, symName: __ZNSt3__19make_pairB8ue170006IRPfS1_EENS_4pairINS_18__unwrap_ref_decayIT_E4typeENS4_IT0_E4typeEEEOS5_OS8_, symObjAddr: 0x5F82C, symBinAddr: 0x100061BE0, symSize: 0x2A0 }
  - { offsetInCU: 0x1BF49, offset: 0x1BF49, size: 0x8, addend: 0x0, symName: __ZNSt3__1lsB8ue170006IcNS_11char_traitsIcEENS_9allocatorIcEEEERNS_13basic_ostreamIT_T0_EES9_RKNS_12basic_stringIS6_S7_T1_EE, symObjAddr: 0x67F0C, symBinAddr: 0x10006A2C0, symSize: 0x12C }
  - { offsetInCU: 0x1BFA1, offset: 0x1BFA1, size: 0x8, addend: 0x0, symName: __ZNSt3__1eqB8ue170006ERKNS_10error_codeES2_, symObjAddr: 0x68038, symBinAddr: 0x10006A3EC, symSize: 0x258 }
  - { offsetInCU: 0x1C579, offset: 0x1C579, size: 0x8, addend: 0x0, symName: __ZNSt3__1eqB8ue170006ERKNS_19__hash_map_iteratorINS_15__hash_iteratorIPNS_11__hash_nodeINS_17__hash_value_typeINS_12basic_stringIcNS_11char_traitsIcEENS_9allocatorIcEEEElEEPvEEEEEESH_, symObjAddr: 0x6B06C, symBinAddr: 0x10006D420, symSize: 0xC0 }
  - { offsetInCU: 0x1C5B6, offset: 0x1C5B6, size: 0x8, addend: 0x0, symName: __ZNSt3__1lsB8ue170006INS_11char_traitsIcEEEERNS_13basic_ostreamIcT_EES6_c, symObjAddr: 0x6B270, symBinAddr: 0x10006D624, symSize: 0x2AC }
  - { offsetInCU: 0x1C601, offset: 0x1C601, size: 0x8, addend: 0x0, symName: __ZNSt3__1eqB8ue170006ERKNS_15__hash_iteratorIPNS_11__hash_nodeINS_17__hash_value_typeINS_12basic_stringIcNS_11char_traitsIcEENS_9allocatorIcEEEElEEPvEEEESF_, symObjAddr: 0x6C090, symBinAddr: 0x10006E444, symSize: 0x114 }
  - { offsetInCU: 0x1C63E, offset: 0x1C63E, size: 0x8, addend: 0x0, symName: __ZNSt3__110scientificB8ue170006ERNS_8ios_baseE, symObjAddr: 0x6E2FC, symBinAddr: 0x1000706B0, symSize: 0x130 }
  - { offsetInCU: 0x1C66C, offset: 0x1C66C, size: 0x8, addend: 0x0, symName: __ZNSt3__15flushB8ue170006IcNS_11char_traitsIcEEEERNS_13basic_ostreamIT_T0_EES7_, symObjAddr: 0x6F950, symBinAddr: 0x100071D04, symSize: 0x128 }
  - { offsetInCU: 0x1CF94, offset: 0x1CF94, size: 0x8, addend: 0x0, symName: __ZSt28__throw_bad_array_new_lengthB8ue170006v, symObjAddr: 0x14D28, symBinAddr: 0x1000170DC, symSize: 0x7C }
  - { offsetInCU: 0x1D029, offset: 0x1D029, size: 0x8, addend: 0x0, symName: _stream, symObjAddr: 0x15CD40, symBinAddr: 0x1000AFAC0, symSize: 0x0 }
  - { offsetInCU: 0x1D768, offset: 0x1D768, size: 0x8, addend: 0x0, symName: _.str.27, symObjAddr: 0x987C0, symBinAddr: 0x100082DC0, symSize: 0x0 }
  - { offsetInCU: 0x1D785, offset: 0x1D785, size: 0x8, addend: 0x0, symName: _.str.29, symObjAddr: 0x987E0, symBinAddr: 0x100082DE0, symSize: 0x0 }
  - { offsetInCU: 0x1D796, offset: 0x1D796, size: 0x8, addend: 0x0, symName: _.str.30, symObjAddr: 0x98800, symBinAddr: 0x100082E00, symSize: 0x0 }
  - { offsetInCU: 0x1D7B3, offset: 0x1D7B3, size: 0x8, addend: 0x0, symName: _.str.31, symObjAddr: 0x98820, symBinAddr: 0x100082E20, symSize: 0x0 }
  - { offsetInCU: 0x1D7D0, offset: 0x1D7D0, size: 0x8, addend: 0x0, symName: _.str.32, symObjAddr: 0x98860, symBinAddr: 0x100082E60, symSize: 0x0 }
  - { offsetInCU: 0x1D7ED, offset: 0x1D7ED, size: 0x8, addend: 0x0, symName: _.str.34, symObjAddr: 0x98880, symBinAddr: 0x100082E80, symSize: 0x0 }
  - { offsetInCU: 0x1D80A, offset: 0x1D80A, size: 0x8, addend: 0x0, symName: ___func__._ZN3ppc12fdostreambuf8overflowEi, symObjAddr: 0x988A0, symBinAddr: 0x100082EA0, symSize: 0x0 }
  - { offsetInCU: 0x1D827, offset: 0x1D827, size: 0x8, addend: 0x0, symName: _.str.35, symObjAddr: 0x988C0, symBinAddr: 0x100082EC0, symSize: 0x0 }
  - { offsetInCU: 0x1D844, offset: 0x1D844, size: 0x8, addend: 0x0, symName: _.str.36, symObjAddr: 0x988E0, symBinAddr: 0x100082EE0, symSize: 0x0 }
  - { offsetInCU: 0x1D863, offset: 0x1D863, size: 0x8, addend: 0x0, symName: _.str.46, symObjAddr: 0x98920, symBinAddr: 0x100082F20, symSize: 0x0 }
  - { offsetInCU: 0x1D882, offset: 0x1D882, size: 0x8, addend: 0x0, symName: _.str.47, symObjAddr: 0x98960, symBinAddr: 0x100082F60, symSize: 0x0 }
  - { offsetInCU: 0x1D8A1, offset: 0x1D8A1, size: 0x8, addend: 0x0, symName: _.str.48, symObjAddr: 0x989A0, symBinAddr: 0x100082FA0, symSize: 0x0 }
  - { offsetInCU: 0x1D8C0, offset: 0x1D8C0, size: 0x8, addend: 0x0, symName: _.str.49, symObjAddr: 0x989E0, symBinAddr: 0x100082FE0, symSize: 0x0 }
  - { offsetInCU: 0x1D8D3, offset: 0x1D8D3, size: 0x8, addend: 0x0, symName: _.str.50, symObjAddr: 0x98A00, symBinAddr: 0x100083000, symSize: 0x0 }
  - { offsetInCU: 0x1D8F2, offset: 0x1D8F2, size: 0x8, addend: 0x0, symName: _.str.51, symObjAddr: 0x98A40, symBinAddr: 0x100083040, symSize: 0x0 }
  - { offsetInCU: 0x1D911, offset: 0x1D911, size: 0x8, addend: 0x0, symName: _.str.52, symObjAddr: 0x98A80, symBinAddr: 0x100083080, symSize: 0x0 }
  - { offsetInCU: 0x1D930, offset: 0x1D930, size: 0x8, addend: 0x0, symName: _.str.53, symObjAddr: 0x98AC0, symBinAddr: 0x1000830C0, symSize: 0x0 }
  - { offsetInCU: 0x1D94F, offset: 0x1D94F, size: 0x8, addend: 0x0, symName: _.str.54, symObjAddr: 0x98B20, symBinAddr: 0x100083120, symSize: 0x0 }
  - { offsetInCU: 0x1D962, offset: 0x1D962, size: 0x8, addend: 0x0, symName: _.str.55, symObjAddr: 0x98B40, symBinAddr: 0x100083140, symSize: 0x0 }
  - { offsetInCU: 0x1D973, offset: 0x1D973, size: 0x8, addend: 0x0, symName: _.str.56, symObjAddr: 0x98B80, symBinAddr: 0x100083180, symSize: 0x0 }
  - { offsetInCU: 0x1D99A, offset: 0x1D99A, size: 0x8, addend: 0x0, symName: ___func__._ZN3ppc6random9get_int64Exx, symObjAddr: 0x98C40, symBinAddr: 0x100083240, symSize: 0x0 }
  - { offsetInCU: 0x1D9B7, offset: 0x1D9B7, size: 0x8, addend: 0x0, symName: _.str.58, symObjAddr: 0x98C60, symBinAddr: 0x100083260, symSize: 0x0 }
  - { offsetInCU: 0x1D9C8, offset: 0x1D9C8, size: 0x8, addend: 0x0, symName: _.str.59, symObjAddr: 0x98C80, symBinAddr: 0x100083280, symSize: 0x0 }
  - { offsetInCU: 0x1D9D9, offset: 0x1D9D9, size: 0x8, addend: 0x0, symName: _.str.60, symObjAddr: 0x98CA0, symBinAddr: 0x1000832A0, symSize: 0x0 }
  - { offsetInCU: 0x1D9EA, offset: 0x1D9EA, size: 0x8, addend: 0x0, symName: ___func__._ZN3ppc6random10get_uint64Eyy, symObjAddr: 0x98CC0, symBinAddr: 0x1000832C0, symSize: 0x0 }
  - { offsetInCU: 0x1D9FD, offset: 0x1D9FD, size: 0x8, addend: 0x0, symName: _.str.66, symObjAddr: 0x98CE0, symBinAddr: 0x1000832E0, symSize: 0x0 }
  - { offsetInCU: 0x1DA0E, offset: 0x1DA0E, size: 0x8, addend: 0x0, symName: _.str.73, symObjAddr: 0x98E00, symBinAddr: 0x100083400, symSize: 0x0 }
  - { offsetInCU: 0x1DA1F, offset: 0x1DA1F, size: 0x8, addend: 0x0, symName: _.str.74, symObjAddr: 0x7EA00, symBinAddr: 0x10007EDC0, symSize: 0x0 }
  - { offsetInCU: 0x1DA3C, offset: 0x1DA3C, size: 0x8, addend: 0x0, symName: _.str.75, symObjAddr: 0x98E20, symBinAddr: 0x100083420, symSize: 0x0 }
  - { offsetInCU: 0x1DA4D, offset: 0x1DA4D, size: 0x8, addend: 0x0, symName: _.str.76, symObjAddr: 0x98E40, symBinAddr: 0x100083440, symSize: 0x0 }
  - { offsetInCU: 0x1DA5E, offset: 0x1DA5E, size: 0x8, addend: 0x0, symName: _.str.77, symObjAddr: 0x98E60, symBinAddr: 0x100083460, symSize: 0x0 }
  - { offsetInCU: 0x1DA7B, offset: 0x1DA7B, size: 0x8, addend: 0x0, symName: _.str.78, symObjAddr: 0x98E80, symBinAddr: 0x100083480, symSize: 0x0 }
  - { offsetInCU: 0x1DA8C, offset: 0x1DA8C, size: 0x8, addend: 0x0, symName: _.str.79, symObjAddr: 0x98EA0, symBinAddr: 0x1000834A0, symSize: 0x0 }
  - { offsetInCU: 0x1DA9D, offset: 0x1DA9D, size: 0x8, addend: 0x0, symName: _.str.80, symObjAddr: 0x98EC0, symBinAddr: 0x1000834C0, symSize: 0x0 }
  - { offsetInCU: 0x1DAAE, offset: 0x1DAAE, size: 0x8, addend: 0x0, symName: _.str.81, symObjAddr: 0x98EE0, symBinAddr: 0x1000834E0, symSize: 0x0 }
  - { offsetInCU: 0x1DABF, offset: 0x1DABF, size: 0x8, addend: 0x0, symName: _.str.82, symObjAddr: 0x98F00, symBinAddr: 0x100083500, symSize: 0x0 }
  - { offsetInCU: 0x1DAD0, offset: 0x1DAD0, size: 0x8, addend: 0x0, symName: _.str.83, symObjAddr: 0x98F20, symBinAddr: 0x100083520, symSize: 0x0 }
  - { offsetInCU: 0x1DAED, offset: 0x1DAED, size: 0x8, addend: 0x0, symName: _.str.84, symObjAddr: 0x98F40, symBinAddr: 0x100083540, symSize: 0x0 }
  - { offsetInCU: 0x1DAFE, offset: 0x1DAFE, size: 0x8, addend: 0x0, symName: _.str.85, symObjAddr: 0x98F60, symBinAddr: 0x100083560, symSize: 0x0 }
  - { offsetInCU: 0x1DB0F, offset: 0x1DB0F, size: 0x8, addend: 0x0, symName: _.str.86, symObjAddr: 0x98F80, symBinAddr: 0x100083580, symSize: 0x0 }
  - { offsetInCU: 0x1DB20, offset: 0x1DB20, size: 0x8, addend: 0x0, symName: _.str.87, symObjAddr: 0x98FA0, symBinAddr: 0x1000835A0, symSize: 0x0 }
  - { offsetInCU: 0x1DB31, offset: 0x1DB31, size: 0x8, addend: 0x0, symName: _.str.88, symObjAddr: 0x98FC0, symBinAddr: 0x1000835C0, symSize: 0x0 }
  - { offsetInCU: 0x1DB4E, offset: 0x1DB4E, size: 0x8, addend: 0x0, symName: _.str.89, symObjAddr: 0x99000, symBinAddr: 0x100083600, symSize: 0x0 }
  - { offsetInCU: 0x1DB5F, offset: 0x1DB5F, size: 0x8, addend: 0x0, symName: _.str.90, symObjAddr: 0x99020, symBinAddr: 0x100083620, symSize: 0x0 }
  - { offsetInCU: 0x1DB7C, offset: 0x1DB7C, size: 0x8, addend: 0x0, symName: _.str.91, symObjAddr: 0x99080, symBinAddr: 0x100083680, symSize: 0x0 }
  - { offsetInCU: 0x1DB99, offset: 0x1DB99, size: 0x8, addend: 0x0, symName: _.str.92, symObjAddr: 0x990A0, symBinAddr: 0x1000836A0, symSize: 0x0 }
  - { offsetInCU: 0x1DBB6, offset: 0x1DBB6, size: 0x8, addend: 0x0, symName: _.str.93, symObjAddr: 0x99180, symBinAddr: 0x100083780, symSize: 0x0 }
  - { offsetInCU: 0x1DBD3, offset: 0x1DBD3, size: 0x8, addend: 0x0, symName: _.str.97, symObjAddr: 0x991E0, symBinAddr: 0x1000837E0, symSize: 0x0 }
  - { offsetInCU: 0x1DBF0, offset: 0x1DBF0, size: 0x8, addend: 0x0, symName: _.str.98, symObjAddr: 0x99240, symBinAddr: 0x100083840, symSize: 0x0 }
  - { offsetInCU: 0x1DC0D, offset: 0x1DC0D, size: 0x8, addend: 0x0, symName: _.str.99, symObjAddr: 0x992A0, symBinAddr: 0x1000838A0, symSize: 0x0 }
  - { offsetInCU: 0x1DC1E, offset: 0x1DC1E, size: 0x8, addend: 0x0, symName: _.str.100, symObjAddr: 0x992C0, symBinAddr: 0x1000838C0, symSize: 0x0 }
  - { offsetInCU: 0x1DC2F, offset: 0x1DC2F, size: 0x8, addend: 0x0, symName: _.str.101, symObjAddr: 0x992E0, symBinAddr: 0x1000838E0, symSize: 0x0 }
  - { offsetInCU: 0x1DC4C, offset: 0x1DC4C, size: 0x8, addend: 0x0, symName: _.str.102, symObjAddr: 0x99340, symBinAddr: 0x100083940, symSize: 0x0 }
  - { offsetInCU: 0x1DC6E, offset: 0x1DC6E, size: 0x8, addend: 0x0, symName: _.str.103, symObjAddr: 0x99360, symBinAddr: 0x100083960, symSize: 0x0 }
  - { offsetInCU: 0x1DC7F, offset: 0x1DC7F, size: 0x8, addend: 0x0, symName: _.str.104, symObjAddr: 0x99380, symBinAddr: 0x100083980, symSize: 0x0 }
  - { offsetInCU: 0x1DCA1, offset: 0x1DCA1, size: 0x8, addend: 0x0, symName: _.str.105, symObjAddr: 0x993A0, symBinAddr: 0x1000839A0, symSize: 0x0 }
  - { offsetInCU: 0x1DCB2, offset: 0x1DCB2, size: 0x8, addend: 0x0, symName: _.str.106, symObjAddr: 0x993C0, symBinAddr: 0x1000839C0, symSize: 0x0 }
  - { offsetInCU: 0x1DCC3, offset: 0x1DCC3, size: 0x8, addend: 0x0, symName: _.str.107, symObjAddr: 0x993E0, symBinAddr: 0x1000839E0, symSize: 0x0 }
  - { offsetInCU: 0x1DCD4, offset: 0x1DCD4, size: 0x8, addend: 0x0, symName: _.str.108, symObjAddr: 0x99400, symBinAddr: 0x100083A00, symSize: 0x0 }
  - { offsetInCU: 0x1DCE5, offset: 0x1DCE5, size: 0x8, addend: 0x0, symName: _.str.109, symObjAddr: 0x99420, symBinAddr: 0x100083A20, symSize: 0x0 }
  - { offsetInCU: 0x1DCF6, offset: 0x1DCF6, size: 0x8, addend: 0x0, symName: _.str.110, symObjAddr: 0x99440, symBinAddr: 0x100083A40, symSize: 0x0 }
  - { offsetInCU: 0x1DD07, offset: 0x1DD07, size: 0x8, addend: 0x0, symName: _.str.111, symObjAddr: 0x99460, symBinAddr: 0x100083A60, symSize: 0x0 }
  - { offsetInCU: 0x1DD18, offset: 0x1DD18, size: 0x8, addend: 0x0, symName: _.str.112, symObjAddr: 0x99480, symBinAddr: 0x100083A80, symSize: 0x0 }
  - { offsetInCU: 0x1DD29, offset: 0x1DD29, size: 0x8, addend: 0x0, symName: _.str.113, symObjAddr: 0x994A0, symBinAddr: 0x100083AA0, symSize: 0x0 }
  - { offsetInCU: 0x1DD3A, offset: 0x1DD3A, size: 0x8, addend: 0x0, symName: _.str.114, symObjAddr: 0x994C0, symBinAddr: 0x100083AC0, symSize: 0x0 }
  - { offsetInCU: 0x1DD4B, offset: 0x1DD4B, size: 0x8, addend: 0x0, symName: _.str.115, symObjAddr: 0x994E0, symBinAddr: 0x100083AE0, symSize: 0x0 }
  - { offsetInCU: 0x1DD5C, offset: 0x1DD5C, size: 0x8, addend: 0x0, symName: _.str.116, symObjAddr: 0x99500, symBinAddr: 0x100083B00, symSize: 0x0 }
  - { offsetInCU: 0x1DD6D, offset: 0x1DD6D, size: 0x8, addend: 0x0, symName: _.str.117, symObjAddr: 0x99520, symBinAddr: 0x100083B20, symSize: 0x0 }
  - { offsetInCU: 0x1DD7E, offset: 0x1DD7E, size: 0x8, addend: 0x0, symName: _.str.118, symObjAddr: 0x99540, symBinAddr: 0x100083B40, symSize: 0x0 }
  - { offsetInCU: 0x1DD8F, offset: 0x1DD8F, size: 0x8, addend: 0x0, symName: _.str.119, symObjAddr: 0x99560, symBinAddr: 0x100083B60, symSize: 0x0 }
  - { offsetInCU: 0x1DDA0, offset: 0x1DDA0, size: 0x8, addend: 0x0, symName: _.str.120, symObjAddr: 0x99580, symBinAddr: 0x100083B80, symSize: 0x0 }
  - { offsetInCU: 0x1DDB1, offset: 0x1DDB1, size: 0x8, addend: 0x0, symName: _.str.121, symObjAddr: 0x995A0, symBinAddr: 0x100083BA0, symSize: 0x0 }
  - { offsetInCU: 0x1EA65, offset: 0x1EA65, size: 0x8, addend: 0x0, symName: __ZNKSt3__16chrono15__duration_castINS0_8durationIxNS_5ratioILl1ELl1EEEEENS2_IxNS3_ILl1ELl1000000EEEEENS3_ILl1000000ELl1EEELb0ELb1EEclB8ue170006ERKS5_, symObjAddr: 0x4128, symBinAddr: 0x1000064DC, symSize: 0x330 }
  - { offsetInCU: 0x1EAB0, offset: 0x1EAB0, size: 0x8, addend: 0x0, symName: __ZNKSt3__16chrono15__duration_castINS0_8durationIxNS_5ratioILl1ELl1000000EEEEENS2_IxNS3_ILl1ELl1000000000EEEEENS3_ILl1000ELl1EEELb0ELb1EEclB8ue170006ERKS5_, symObjAddr: 0x4838, symBinAddr: 0x100006BEC, symSize: 0x324 }
  - { offsetInCU: 0x1EFA4, offset: 0x1EFA4, size: 0x8, addend: 0x0, symName: __ZN12_GLOBAL__N_114make_test_caseERKNSt3__112basic_stringIcNS0_11char_traitsIcEENS0_9allocatorIcEEEERNS0_13basic_istreamIcS3_EE, symObjAddr: 0x216C8, symBinAddr: 0x100023A7C, symSize: 0x2278 }
  - { offsetInCU: 0x1F08E, offset: 0x1F08E, size: 0x8, addend: 0x0, symName: __ZN12_GLOBAL__N_17coloursERN3ppc6randomEPfS3_, symObjAddr: 0x34CB4, symBinAddr: 0x100037068, symSize: 0x1464 }
  - { offsetInCU: 0x1F118, offset: 0x1F118, size: 0x8, addend: 0x0, symName: __ZN12_GLOBAL__N_16insideEiii, symObjAddr: 0x4262C, symBinAddr: 0x1000449E0, symSize: 0x58 }
  - { offsetInCU: 0x1F161, offset: 0x1F161, size: 0x8, addend: 0x0, symName: __ZN12_GLOBAL__N_19find_avgsEiiPKfR6Result, symObjAddr: 0x4CF20, symBinAddr: 0x10004F2D4, symSize: 0x1400 }
  - { offsetInCU: 0x1F278, offset: 0x1F278, size: 0x8, addend: 0x0, symName: __ZN12_GLOBAL__N_117normalize_uniformEPf, symObjAddr: 0x4E5F4, symBinAddr: 0x1000509A8, symSize: 0xAA4 }
  - { offsetInCU: 0x1F2B4, offset: 0x1F2B4, size: 0x8, addend: 0x0, symName: __ZN12_GLOBAL__N_19is_insideERK6Resultii, symObjAddr: 0x58010, symBinAddr: 0x10005A3C4, symSize: 0x2DC }
  - { offsetInCU: 0x21B6E, offset: 0x21B6E, size: 0x8, addend: 0x0, symName: __ZNSt3__110unique_ptrIN3ppc9StopwatchENS_14default_deleteIS2_EEEC1B8ue170006INS1_6detail20PerfCountersFallbackENS3_IS8_EEvvEEONS0_IT_T0_EE, symObjAddr: 0x314, symBinAddr: 0x1000026C8, symSize: 0x80 }
  - { offsetInCU: 0x21BBA, offset: 0x21BBA, size: 0x8, addend: 0x0, symName: __ZNSt3__110unique_ptrIN3ppc6detail20PerfCountersFallbackENS_14default_deleteIS3_EEED1B8ue170006Ev, symObjAddr: 0x394, symBinAddr: 0x100002748, symSize: 0x78 }
  - { offsetInCU: 0x21BE4, offset: 0x21BE4, size: 0x8, addend: 0x0, symName: __ZN3ppc6detail20PerfCountersFallbackC1Ev, symObjAddr: 0x40C, symBinAddr: 0x1000027C0, symSize: 0x78 }
  - { offsetInCU: 0x21C0E, offset: 0x21C0E, size: 0x8, addend: 0x0, symName: __ZNSt3__110unique_ptrIN3ppc6detail20PerfCountersFallbackENS_14default_deleteIS3_EEEC1B8ue170006ILb1EvEEPS3_, symObjAddr: 0x484, symBinAddr: 0x100002838, symSize: 0x80 }
  - { offsetInCU: 0x21C51, offset: 0x21C51, size: 0x8, addend: 0x0, symName: __ZN3ppc6detail20PerfCountersFallbackC2Ev, symObjAddr: 0x504, symBinAddr: 0x1000028B8, symSize: 0x248 }
  - { offsetInCU: 0x21C7B, offset: 0x21C7B, size: 0x8, addend: 0x0, symName: __ZN3ppc9StopwatchC2Ev, symObjAddr: 0x74C, symBinAddr: 0x100002B00, symSize: 0x17C }
  - { offsetInCU: 0x21CA7, offset: 0x21CA7, size: 0x8, addend: 0x0, symName: __ZNSt3__16chrono8durationIxNS_5ratioILl1ELl1000000000EEEE4zeroB8ue170006Ev, symObjAddr: 0x8C8, symBinAddr: 0x100002C7C, symSize: 0x298 }
  - { offsetInCU: 0x21CBB, offset: 0x21CBB, size: 0x8, addend: 0x0, symName: __ZN3ppc6detail20PerfCountersFallbackD1Ev, symObjAddr: 0xB60, symBinAddr: 0x100002F14, symSize: 0x78 }
  - { offsetInCU: 0x21CE7, offset: 0x21CE7, size: 0x8, addend: 0x0, symName: __ZN3ppc6detail20PerfCountersFallbackD0Ev, symObjAddr: 0xBD8, symBinAddr: 0x100002F8C, symSize: 0x74 }
  - { offsetInCU: 0x21D13, offset: 0x21D13, size: 0x8, addend: 0x0, symName: __ZN3ppc6detail20PerfCountersFallback9start_impEv, symObjAddr: 0xC4C, symBinAddr: 0x100003000, symSize: 0x390 }
  - { offsetInCU: 0x21D4C, offset: 0x21D4C, size: 0x8, addend: 0x0, symName: __ZN3ppc6detail20PerfCountersFallback8stop_impEv, symObjAddr: 0xFDC, symBinAddr: 0x100003390, symSize: 0x6C8 }
  - { offsetInCU: 0x21D85, offset: 0x21D85, size: 0x8, addend: 0x0, symName: __ZN3ppc6detail20PerfCountersFallback15add_counter_impERKNSt3__112basic_stringIcNS2_11char_traitsIcEENS2_9allocatorIcEEEE, symObjAddr: 0x16A4, symBinAddr: 0x100003A58, symSize: 0x5D4 }
  - { offsetInCU: 0x21DBB, offset: 0x21DBB, size: 0x8, addend: 0x0, symName: __ZN3ppc6detail20PerfCountersFallback16get_counters_impEv, symObjAddr: 0x1C78, symBinAddr: 0x10000402C, symSize: 0xADC }
  - { offsetInCU: 0x21DF2, offset: 0x21DF2, size: 0x8, addend: 0x0, symName: __ZNSt3__16chrono10time_pointINS0_12steady_clockENS0_8durationIxNS_5ratioILl1ELl1000000000EEEEEEC1B8ue170006Ev, symObjAddr: 0x2754, symBinAddr: 0x100004B08, symSize: 0x78 }
  - { offsetInCU: 0x21E1C, offset: 0x21E1C, size: 0x8, addend: 0x0, symName: __ZN3ppc9StopwatchD1Ev, symObjAddr: 0x27CC, symBinAddr: 0x100004B80, symSize: 0x64 }
  - { offsetInCU: 0x21E46, offset: 0x21E46, size: 0x8, addend: 0x0, symName: __ZN3ppc9StopwatchD0Ev, symObjAddr: 0x2830, symBinAddr: 0x100004BE4, symSize: 0x5C }
  - { offsetInCU: 0x21E70, offset: 0x21E70, size: 0x8, addend: 0x0, symName: __ZNSt3__16chrono10time_pointINS0_12steady_clockENS0_8durationIxNS_5ratioILl1ELl1000000000EEEEEEC2B8ue170006Ev, symObjAddr: 0x288C, symBinAddr: 0x100004C40, symSize: 0xC4 }
  - { offsetInCU: 0x21E9A, offset: 0x21E9A, size: 0x8, addend: 0x0, symName: __ZNSt3__16chrono15duration_valuesIxE4zeroB8ue170006Ev, symObjAddr: 0x2950, symBinAddr: 0x100004D04, symSize: 0x8 }
  - { offsetInCU: 0x21EBE, offset: 0x21EBE, size: 0x8, addend: 0x0, symName: __ZNSt3__16chrono8durationIxNS_5ratioILl1ELl1000000000EEEEC1B8ue170006IxEERKT_PNS_9enable_ifIXaasr14is_convertibleIS8_xEE5valueooL_ZNS_17integral_constantIbLb0EE5valueEEntsr23treat_as_floating_pointIS6_EE5valueEvE4typeE, symObjAddr: 0x2958, symBinAddr: 0x100004D0C, symSize: 0x88 }
  - { offsetInCU: 0x21F0B, offset: 0x21F0B, size: 0x8, addend: 0x0, symName: __ZNSt3__16chrono8durationIxNS_5ratioILl1ELl1000000000EEEEC2B8ue170006IxEERKT_PNS_9enable_ifIXaasr14is_convertibleIS8_xEE5valueooL_ZNS_17integral_constantIbLb0EE5valueEEntsr23treat_as_floating_pointIS6_EE5valueEvE4typeE, symObjAddr: 0x29EC, symBinAddr: 0x100004DA0, symSize: 0x104 }
  - { offsetInCU: 0x21F58, offset: 0x21F58, size: 0x8, addend: 0x0, symName: __ZN3ppc6detail20PerfCountersFallbackD2Ev, symObjAddr: 0x2AF0, symBinAddr: 0x100004EA4, symSize: 0x78 }
  - { offsetInCU: 0x21F84, offset: 0x21F84, size: 0x8, addend: 0x0, symName: __ZN3ppc9StopwatchD2Ev, symObjAddr: 0x2B68, symBinAddr: 0x100004F1C, symSize: 0x6C }
  - { offsetInCU: 0x21FB9, offset: 0x21FB9, size: 0x8, addend: 0x0, symName: __ZNSt3__16chrono8durationIxNS_5ratioILl1ELl1EEEEC1B8ue170006IlEERKT_PNS_9enable_ifIXaasr14is_convertibleIS8_xEE5valueooL_ZNS_17integral_constantIbLb0EE5valueEEntsr23treat_as_floating_pointIS6_EE5valueEvE4typeE, symObjAddr: 0x35C0, symBinAddr: 0x100005974, symSize: 0x88 }
  - { offsetInCU: 0x2200C, offset: 0x2200C, size: 0x8, addend: 0x0, symName: __ZNSt3__16chrono8durationIxNS_5ratioILl1ELl1000000EEEEC1B8ue170006IiEERKT_PNS_9enable_ifIXaasr14is_convertibleIS8_xEE5valueooL_ZNS_17integral_constantIbLb0EE5valueEEntsr23treat_as_floating_pointIS6_EE5valueEvE4typeE, symObjAddr: 0x3648, symBinAddr: 0x1000059FC, symSize: 0x88 }
  - { offsetInCU: 0x22059, offset: 0x22059, size: 0x8, addend: 0x0, symName: __ZNSt3__16chrono8durationIxNS_5ratioILl1ELl1000000EEEEC1B8ue170006IxNS2_ILl1ELl1EEEEERKNS1_IT_T0_EEPNS_9enable_ifIXaasr13__no_overflowIS8_S3_EE5valueooL_ZNS_17integral_constantIbLb0EE5valueEEaaeqsr13__no_overflowIS8_S3_E4typeE3denLi1Entsr23treat_as_floating_pointIS7_EE5valueEvE4typeE, symObjAddr: 0x399C, symBinAddr: 0x100005D50, symSize: 0x88 }
  - { offsetInCU: 0x220B0, offset: 0x220B0, size: 0x8, addend: 0x0, symName: __ZNKSt3__16chrono8durationIxNS_5ratioILl1ELl1000000EEEE5countB8ue170006Ev, symObjAddr: 0x3A24, symBinAddr: 0x100005DD8, symSize: 0xAC }
  - { offsetInCU: 0x220D6, offset: 0x220D6, size: 0x8, addend: 0x0, symName: __ZNSt3__16chrono8durationIxNS_5ratioILl1ELl1000000EEEEC1B8ue170006IxEERKT_PNS_9enable_ifIXaasr14is_convertibleIS8_xEE5valueooL_ZNS_17integral_constantIbLb0EE5valueEEntsr23treat_as_floating_pointIS6_EE5valueEvE4typeE, symObjAddr: 0x3AD0, symBinAddr: 0x100005E84, symSize: 0x88 }
  - { offsetInCU: 0x22123, offset: 0x22123, size: 0x8, addend: 0x0, symName: __ZNSt3__16chrono8durationIxNS_5ratioILl1ELl1000000EEEEC2B8ue170006IxNS2_ILl1ELl1EEEEERKNS1_IT_T0_EEPNS_9enable_ifIXaasr13__no_overflowIS8_S3_EE5valueooL_ZNS_17integral_constantIbLb0EE5valueEEaaeqsr13__no_overflowIS8_S3_E4typeE3denLi1Entsr23treat_as_floating_pointIS7_EE5valueEvE4typeE, symObjAddr: 0x3B58, symBinAddr: 0x100005F0C, symSize: 0x304 }
  - { offsetInCU: 0x2217D, offset: 0x2217D, size: 0x8, addend: 0x0, symName: __ZNKSt3__16chrono8durationIxNS_5ratioILl1ELl1EEEE5countB8ue170006Ev, symObjAddr: 0x4458, symBinAddr: 0x10000680C, symSize: 0xAC }
  - { offsetInCU: 0x221A3, offset: 0x221A3, size: 0x8, addend: 0x0, symName: __ZNSt3__16chrono8durationIxNS_5ratioILl1ELl1000000EEEEC2B8ue170006IxEERKT_PNS_9enable_ifIXaasr14is_convertibleIS8_xEE5valueooL_ZNS_17integral_constantIbLb0EE5valueEEntsr23treat_as_floating_pointIS6_EE5valueEvE4typeE, symObjAddr: 0x4504, symBinAddr: 0x1000068B8, symSize: 0x104 }
  - { offsetInCU: 0x221F0, offset: 0x221F0, size: 0x8, addend: 0x0, symName: __ZNSt3__16chrono8durationIxNS_5ratioILl1ELl1EEEEC2B8ue170006IlEERKT_PNS_9enable_ifIXaasr14is_convertibleIS8_xEE5valueooL_ZNS_17integral_constantIbLb0EE5valueEEntsr23treat_as_floating_pointIS6_EE5valueEvE4typeE, symObjAddr: 0x4608, symBinAddr: 0x1000069BC, symSize: 0x104 }
  - { offsetInCU: 0x2223D, offset: 0x2223D, size: 0x8, addend: 0x0, symName: __ZNSt3__16chrono8durationIxNS_5ratioILl1ELl1000000EEEEC2B8ue170006IiEERKT_PNS_9enable_ifIXaasr14is_convertibleIS8_xEE5valueooL_ZNS_17integral_constantIbLb0EE5valueEEntsr23treat_as_floating_pointIS6_EE5valueEvE4typeE, symObjAddr: 0x470C, symBinAddr: 0x100006AC0, symSize: 0x12C }
  - { offsetInCU: 0x2228A, offset: 0x2228A, size: 0x8, addend: 0x0, symName: __ZNSt3__16chrono8durationIxNS_5ratioILl1ELl1000000000EEEEpLB8ue170006ERKS4_, symObjAddr: 0x4EB8, symBinAddr: 0x10000726C, symSize: 0x19C }
  - { offsetInCU: 0x222BF, offset: 0x222BF, size: 0x8, addend: 0x0, symName: __ZNKSt3__16chrono8durationIxNS_5ratioILl1ELl1000000000EEEE5countB8ue170006Ev, symObjAddr: 0x5054, symBinAddr: 0x100007408, symSize: 0xAC }
  - { offsetInCU: 0x222E5, offset: 0x222E5, size: 0x8, addend: 0x0, symName: __ZNKSt3__112basic_stringIcNS_11char_traitsIcEENS_9allocatorIcEEEcvNS_17basic_string_viewIcS2_EEB8ue170006Ev, symObjAddr: 0x5854, symBinAddr: 0x100007C08, symSize: 0x26C }
  - { offsetInCU: 0x2230C, offset: 0x2230C, size: 0x8, addend: 0x0, symName: __ZNSt3__117basic_string_viewIcNS_11char_traitsIcEEEC1B8ue170006EPKc, symObjAddr: 0x5AC0, symBinAddr: 0x100007E74, symSize: 0x80 }
  - { offsetInCU: 0x22345, offset: 0x22345, size: 0x8, addend: 0x0, symName: __ZNKSt3__117basic_string_viewIcNS_11char_traitsIcEEE4sizeB8ue170006Ev, symObjAddr: 0x5B40, symBinAddr: 0x100007EF4, symSize: 0xB0 }
  - { offsetInCU: 0x2236B, offset: 0x2236B, size: 0x8, addend: 0x0, symName: __ZNKSt3__117basic_string_viewIcNS_11char_traitsIcEEE7compareES3_, symObjAddr: 0x5BF0, symBinAddr: 0x100007FA4, symSize: 0x4BC }
  - { offsetInCU: 0x223C5, offset: 0x223C5, size: 0x8, addend: 0x0, symName: __ZNSt3__111char_traitsIcE7compareB8ue170006EPKcS3_m, symObjAddr: 0x61B0, symBinAddr: 0x100008564, symSize: 0x34 }
  - { offsetInCU: 0x22404, offset: 0x22404, size: 0x8, addend: 0x0, symName: __ZNKSt3__117basic_string_viewIcNS_11char_traitsIcEEE4dataB8ue170006Ev, symObjAddr: 0x61E4, symBinAddr: 0x100008598, symSize: 0xAC }
  - { offsetInCU: 0x22434, offset: 0x22434, size: 0x8, addend: 0x0, symName: __ZNKSt3__16__lessIvvEclB8ue170006ImmEEbRKT_RKT0_, symObjAddr: 0x6550, symBinAddr: 0x100008904, symSize: 0xEC }
  - { offsetInCU: 0x22488, offset: 0x22488, size: 0x8, addend: 0x0, symName: __ZNKSt3__112basic_stringIcNS_11char_traitsIcEENS_9allocatorIcEEE4dataB8ue170006Ev, symObjAddr: 0x663C, symBinAddr: 0x1000089F0, symSize: 0x70 }
  - { offsetInCU: 0x224AE, offset: 0x224AE, size: 0x8, addend: 0x0, symName: __ZNKSt3__112basic_stringIcNS_11char_traitsIcEENS_9allocatorIcEEE4sizeB8ue170006Ev, symObjAddr: 0x66AC, symBinAddr: 0x100008A60, symSize: 0x98 }
  - { offsetInCU: 0x224D4, offset: 0x224D4, size: 0x8, addend: 0x0, symName: __ZNSt3__117basic_string_viewIcNS_11char_traitsIcEEEC1B8ue170006EPKcm, symObjAddr: 0x6744, symBinAddr: 0x100008AF8, symSize: 0x88 }
  - { offsetInCU: 0x2251C, offset: 0x2251C, size: 0x8, addend: 0x0, symName: __ZNKSt3__112basic_stringIcNS_11char_traitsIcEENS_9allocatorIcEEE13__get_pointerB8ue170006Ev, symObjAddr: 0x67E0, symBinAddr: 0x100008B94, symSize: 0x98 }
  - { offsetInCU: 0x22542, offset: 0x22542, size: 0x8, addend: 0x0, symName: __ZNKSt3__112basic_stringIcNS_11char_traitsIcEENS_9allocatorIcEEE9__is_longB8ue170006Ev, symObjAddr: 0x6878, symBinAddr: 0x100008C2C, symSize: 0x1FC }
  - { offsetInCU: 0x22568, offset: 0x22568, size: 0x8, addend: 0x0, symName: __ZNKSt3__112basic_stringIcNS_11char_traitsIcEENS_9allocatorIcEEE18__get_long_pointerB8ue170006Ev, symObjAddr: 0x6A74, symBinAddr: 0x100008E28, symSize: 0x208 }
  - { offsetInCU: 0x2258E, offset: 0x2258E, size: 0x8, addend: 0x0, symName: __ZNKSt3__112basic_stringIcNS_11char_traitsIcEENS_9allocatorIcEEE19__get_short_pointerB8ue170006Ev, symObjAddr: 0x6C7C, symBinAddr: 0x100009030, symSize: 0x1CC }
  - { offsetInCU: 0x225B4, offset: 0x225B4, size: 0x8, addend: 0x0, symName: __ZNKSt3__117__compressed_pairINS_12basic_stringIcNS_11char_traitsIcEENS_9allocatorIcEEE5__repES5_E5firstB8ue170006Ev, symObjAddr: 0x6E48, symBinAddr: 0x1000091FC, symSize: 0x124 }
  - { offsetInCU: 0x225DA, offset: 0x225DA, size: 0x8, addend: 0x0, symName: __ZNKSt3__122__compressed_pair_elemINS_12basic_stringIcNS_11char_traitsIcEENS_9allocatorIcEEE5__repELi0ELb0EE5__getB8ue170006Ev, symObjAddr: 0x6F6C, symBinAddr: 0x100009320, symSize: 0xAC }
  - { offsetInCU: 0x22600, offset: 0x22600, size: 0x8, addend: 0x0, symName: __ZNSt3__114pointer_traitsIPKcE10pointer_toB8ue170006ERS1_, symObjAddr: 0x7018, symBinAddr: 0x1000093CC, symSize: 0x14 }
  - { offsetInCU: 0x22623, offset: 0x22623, size: 0x8, addend: 0x0, symName: __ZNKSt3__112basic_stringIcNS_11char_traitsIcEENS_9allocatorIcEEE15__get_long_sizeB8ue170006Ev, symObjAddr: 0x702C, symBinAddr: 0x1000093E0, symSize: 0x210 }
  - { offsetInCU: 0x22649, offset: 0x22649, size: 0x8, addend: 0x0, symName: __ZNKSt3__112basic_stringIcNS_11char_traitsIcEENS_9allocatorIcEEE16__get_short_sizeB8ue170006Ev, symObjAddr: 0x723C, symBinAddr: 0x1000095F0, symSize: 0x1F8 }
  - { offsetInCU: 0x2266F, offset: 0x2266F, size: 0x8, addend: 0x0, symName: __ZNSt3__117basic_string_viewIcNS_11char_traitsIcEEEC2B8ue170006EPKcm, symObjAddr: 0x7434, symBinAddr: 0x1000097E8, symSize: 0x110 }
  - { offsetInCU: 0x226B7, offset: 0x226B7, size: 0x8, addend: 0x0, symName: __ZNSt3__117basic_string_viewIcNS_11char_traitsIcEEEC2B8ue170006EPKc, symObjAddr: 0x7544, symBinAddr: 0x1000098F8, symSize: 0x118 }
  - { offsetInCU: 0x226F0, offset: 0x226F0, size: 0x8, addend: 0x0, symName: __ZNSt3__111char_traitsIcE6lengthB8ue170006EPKc, symObjAddr: 0x7680, symBinAddr: 0x100009A34, symSize: 0x40 }
  - { offsetInCU: 0x22713, offset: 0x22713, size: 0x8, addend: 0x0, symName: __ZNSt3__112basic_stringIcNS_11char_traitsIcEENS_9allocatorIcEEEC1B8ue170006EOS5_, symObjAddr: 0x76E4, symBinAddr: 0x100009A98, symSize: 0x80 }
  - { offsetInCU: 0x2274C, offset: 0x2274C, size: 0x8, addend: 0x0, symName: __ZNSt3__112basic_stringIcNS_11char_traitsIcEENS_9allocatorIcEEEC2B8ue170006EOS5_, symObjAddr: 0x7764, symBinAddr: 0x100009B18, symSize: 0xCC }
  - { offsetInCU: 0x22785, offset: 0x22785, size: 0x8, addend: 0x0, symName: __ZNSt3__112basic_stringIcNS_11char_traitsIcEENS_9allocatorIcEEE14__default_initB8ue170006Ev, symObjAddr: 0x7830, symBinAddr: 0x100009BE4, symSize: 0x2B4 }
  - { offsetInCU: 0x227AC, offset: 0x227AC, size: 0x8, addend: 0x0, symName: __ZNSt3__117__compressed_pairINS_12basic_stringIcNS_11char_traitsIcEENS_9allocatorIcEEE5__repES5_E5firstB8ue170006Ev, symObjAddr: 0x7AE4, symBinAddr: 0x100009E98, symSize: 0x124 }
  - { offsetInCU: 0x227D2, offset: 0x227D2, size: 0x8, addend: 0x0, symName: __ZNSt3__122__compressed_pair_elemINS_12basic_stringIcNS_11char_traitsIcEENS_9allocatorIcEEE5__repELi0ELb0EE5__getB8ue170006Ev, symObjAddr: 0x7C08, symBinAddr: 0x100009FBC, symSize: 0xAC }
  - { offsetInCU: 0x227F8, offset: 0x227F8, size: 0x8, addend: 0x0, symName: __ZNSt3__113unordered_mapINS_12basic_stringIcNS_11char_traitsIcEENS_9allocatorIcEEEElNS_4hashIS6_EENS_8equal_toIS6_EENS4_INS_4pairIKS6_lEEEEEC1B8ue170006Ev, symObjAddr: 0x7CB4, symBinAddr: 0x10000A068, symSize: 0x78 }
  - { offsetInCU: 0x22822, offset: 0x22822, size: 0x8, addend: 0x0, symName: __ZNK3ppc9Stopwatch9wall_timeEv, symObjAddr: 0x7D2C, symBinAddr: 0x10000A0E0, symSize: 0x2D4 }
  - { offsetInCU: 0x22849, offset: 0x22849, size: 0x8, addend: 0x0, symName: __ZNSt3__113unordered_mapINS_12basic_stringIcNS_11char_traitsIcEENS_9allocatorIcEEEElNS_4hashIS6_EENS_8equal_toIS6_EENS4_INS_4pairIKS6_lEEEEEixEOS6_, symObjAddr: 0x8000, symBinAddr: 0x10000A3B4, symSize: 0x4F8 }
  - { offsetInCU: 0x22887, offset: 0x22887, size: 0x8, addend: 0x0, symName: __ZNSt3__112basic_stringIcNS_11char_traitsIcEENS_9allocatorIcEEEC1B8ue170006ILi0EEEPKc, symObjAddr: 0x84F8, symBinAddr: 0x10000A8AC, symSize: 0x80 }
  - { offsetInCU: 0x228C6, offset: 0x228C6, size: 0x8, addend: 0x0, symName: __ZNSt3__113unordered_mapINS_12basic_stringIcNS_11char_traitsIcEENS_9allocatorIcEEEElNS_4hashIS6_EENS_8equal_toIS6_EENS4_INS_4pairIKS6_lEEEEED1B8ue170006Ev, symObjAddr: 0x8578, symBinAddr: 0x10000A92C, symSize: 0x78 }
  - { offsetInCU: 0x228F0, offset: 0x228F0, size: 0x8, addend: 0x0, symName: __ZNSt3__113unordered_mapINS_12basic_stringIcNS_11char_traitsIcEENS_9allocatorIcEEEElNS_4hashIS6_EENS_8equal_toIS6_EENS4_INS_4pairIKS6_lEEEEEC2B8ue170006Ev, symObjAddr: 0x85F0, symBinAddr: 0x10000A9A4, symSize: 0x78 }
  - { offsetInCU: 0x2291A, offset: 0x2291A, size: 0x8, addend: 0x0, symName: __ZNSt3__112__hash_tableINS_17__hash_value_typeINS_12basic_stringIcNS_11char_traitsIcEENS_9allocatorIcEEEElEENS_22__unordered_map_hasherIS7_S8_NS_4hashIS7_EENS_8equal_toIS7_EELb1EEENS_21__unordered_map_equalIS7_S8_SD_SB_Lb1EEENS5_IS8_EEEC1Ev, symObjAddr: 0x8668, symBinAddr: 0x10000AA1C, symSize: 0x78 }
  - { offsetInCU: 0x22946, offset: 0x22946, size: 0x8, addend: 0x0, symName: __ZNSt3__112__hash_tableINS_17__hash_value_typeINS_12basic_stringIcNS_11char_traitsIcEENS_9allocatorIcEEEElEENS_22__unordered_map_hasherIS7_S8_NS_4hashIS7_EENS_8equal_toIS7_EELb1EEENS_21__unordered_map_equalIS7_S8_SD_SB_Lb1EEENS5_IS8_EEEC2Ev, symObjAddr: 0x86E0, symBinAddr: 0x10000AA94, symSize: 0x3E0 }
  - { offsetInCU: 0x22973, offset: 0x22973, size: 0x8, addend: 0x0, symName: __ZNSt3__110unique_ptrIA_PNS_16__hash_node_baseIPNS_11__hash_nodeINS_17__hash_value_typeINS_12basic_stringIcNS_11char_traitsIcEENS_9allocatorIcEEEElEEPvEEEENS_25__bucket_list_deallocatorINS7_ISF_EEEEEC1B8ue170006ILb1EvEEv, symObjAddr: 0x8AC0, symBinAddr: 0x10000AE74, symSize: 0x78 }
  - { offsetInCU: 0x229A8, offset: 0x229A8, size: 0x8, addend: 0x0, symName: __ZNSt3__117__compressed_pairINS_16__hash_node_baseIPNS_11__hash_nodeINS_17__hash_value_typeINS_12basic_stringIcNS_11char_traitsIcEENS_9allocatorIcEEEElEEPvEEEENS7_ISC_EEEC1B8ue170006ILb1EvEEv, symObjAddr: 0x8B38, symBinAddr: 0x10000AEEC, symSize: 0x78 }
  - { offsetInCU: 0x229E9, offset: 0x229E9, size: 0x8, addend: 0x0, symName: __ZNSt3__117__compressed_pairImNS_22__unordered_map_hasherINS_12basic_stringIcNS_11char_traitsIcEENS_9allocatorIcEEEENS_17__hash_value_typeIS7_lEENS_4hashIS7_EENS_8equal_toIS7_EELb1EEEEC1B8ue170006IiNS_18__default_init_tagEEEOT_OT0_, symObjAddr: 0x8BB0, symBinAddr: 0x10000AF64, symSize: 0x88 }
  - { offsetInCU: 0x22A47, offset: 0x22A47, size: 0x8, addend: 0x0, symName: __ZNSt3__117__compressed_pairIfNS_21__unordered_map_equalINS_12basic_stringIcNS_11char_traitsIcEENS_9allocatorIcEEEENS_17__hash_value_typeIS7_lEENS_8equal_toIS7_EENS_4hashIS7_EELb1EEEEC1B8ue170006IfNS_18__default_init_tagEEEOT_OT0_, symObjAddr: 0x8C38, symBinAddr: 0x10000AFEC, symSize: 0x88 }
  - { offsetInCU: 0x22A9F, offset: 0x22A9F, size: 0x8, addend: 0x0, symName: __ZNSt3__110unique_ptrIA_PNS_16__hash_node_baseIPNS_11__hash_nodeINS_17__hash_value_typeINS_12basic_stringIcNS_11char_traitsIcEENS_9allocatorIcEEEElEEPvEEEENS_25__bucket_list_deallocatorINS7_ISF_EEEEEC2B8ue170006ILb1EvEEv, symObjAddr: 0x8CC0, symBinAddr: 0x10000B074, symSize: 0x268 }
  - { offsetInCU: 0x22ADB, offset: 0x22ADB, size: 0x8, addend: 0x0, symName: __ZNSt3__117__compressed_pairIPPNS_16__hash_node_baseIPNS_11__hash_nodeINS_17__hash_value_typeINS_12basic_stringIcNS_11char_traitsIcEENS_9allocatorIcEEEElEEPvEEEENS_25__bucket_list_deallocatorINS7_ISF_EEEEEC1B8ue170006INS_16__value_init_tagESM_EEOT_OT0_, symObjAddr: 0x8F28, symBinAddr: 0x10000B2DC, symSize: 0x88 }
  - { offsetInCU: 0x22B33, offset: 0x22B33, size: 0x8, addend: 0x0, symName: __ZNSt3__117__compressed_pairIPPNS_16__hash_node_baseIPNS_11__hash_nodeINS_17__hash_value_typeINS_12basic_stringIcNS_11char_traitsIcEENS_9allocatorIcEEEElEEPvEEEENS_25__bucket_list_deallocatorINS7_ISF_EEEEEC2B8ue170006INS_16__value_init_tagESM_EEOT_OT0_, symObjAddr: 0x8FB0, symBinAddr: 0x10000B364, symSize: 0x118 }
  - { offsetInCU: 0x22B8B, offset: 0x22B8B, size: 0x8, addend: 0x0, symName: __ZNSt3__122__compressed_pair_elemIPPNS_16__hash_node_baseIPNS_11__hash_nodeINS_17__hash_value_typeINS_12basic_stringIcNS_11char_traitsIcEENS_9allocatorIcEEEElEEPvEEEELi0ELb0EEC2B8ue170006ENS_16__value_init_tagE, symObjAddr: 0x90C8, symBinAddr: 0x10000B47C, symSize: 0xB8 }
  - { offsetInCU: 0x22BC0, offset: 0x22BC0, size: 0x8, addend: 0x0, symName: __ZNSt3__122__compressed_pair_elemINS_25__bucket_list_deallocatorINS_9allocatorIPNS_16__hash_node_baseIPNS_11__hash_nodeINS_17__hash_value_typeINS_12basic_stringIcNS_11char_traitsIcEENS2_IcEEEElEEPvEEEEEEEELi1ELb0EEC2B8ue170006ENS_16__value_init_tagE, symObjAddr: 0x9180, symBinAddr: 0x10000B534, symSize: 0x78 }
  - { offsetInCU: 0x22BF5, offset: 0x22BF5, size: 0x8, addend: 0x0, symName: __ZNSt3__125__bucket_list_deallocatorINS_9allocatorIPNS_16__hash_node_baseIPNS_11__hash_nodeINS_17__hash_value_typeINS_12basic_stringIcNS_11char_traitsIcEENS1_IcEEEElEEPvEEEEEEEC1B8ue170006Ev, symObjAddr: 0x91F8, symBinAddr: 0x10000B5AC, symSize: 0x78 }
  - { offsetInCU: 0x22C1F, offset: 0x22C1F, size: 0x8, addend: 0x0, symName: __ZNSt3__125__bucket_list_deallocatorINS_9allocatorIPNS_16__hash_node_baseIPNS_11__hash_nodeINS_17__hash_value_typeINS_12basic_stringIcNS_11char_traitsIcEENS1_IcEEEElEEPvEEEEEEEC2B8ue170006Ev, symObjAddr: 0x9270, symBinAddr: 0x10000B624, symSize: 0x2CC }
  - { offsetInCU: 0x22C4A, offset: 0x22C4A, size: 0x8, addend: 0x0, symName: __ZNSt3__117__compressed_pairImNS_9allocatorIPNS_16__hash_node_baseIPNS_11__hash_nodeINS_17__hash_value_typeINS_12basic_stringIcNS_11char_traitsIcEENS1_IcEEEElEEPvEEEEEEEC1B8ue170006IiNS_18__default_init_tagEEEOT_OT0_, symObjAddr: 0x953C, symBinAddr: 0x10000B8F0, symSize: 0x88 }
  - { offsetInCU: 0x22CA2, offset: 0x22CA2, size: 0x8, addend: 0x0, symName: __ZNSt3__117__compressed_pairImNS_9allocatorIPNS_16__hash_node_baseIPNS_11__hash_nodeINS_17__hash_value_typeINS_12basic_stringIcNS_11char_traitsIcEENS1_IcEEEElEEPvEEEEEEEC2B8ue170006IiNS_18__default_init_tagEEEOT_OT0_, symObjAddr: 0x95C4, symBinAddr: 0x10000B978, symSize: 0x140 }
  - { offsetInCU: 0x22CFA, offset: 0x22CFA, size: 0x8, addend: 0x0, symName: __ZNSt3__122__compressed_pair_elemImLi0ELb0EEC2B8ue170006IivEEOT_, symObjAddr: 0x9704, symBinAddr: 0x10000BAB8, symSize: 0x16C }
  - { offsetInCU: 0x22D3C, offset: 0x22D3C, size: 0x8, addend: 0x0, symName: __ZNSt3__122__compressed_pair_elemINS_9allocatorIPNS_16__hash_node_baseIPNS_11__hash_nodeINS_17__hash_value_typeINS_12basic_stringIcNS_11char_traitsIcEENS1_IcEEEElEEPvEEEEEELi1ELb1EEC2B8ue170006ENS_18__default_init_tagE, symObjAddr: 0x9870, symBinAddr: 0x10000BC24, symSize: 0x84 }
  - { offsetInCU: 0x22D71, offset: 0x22D71, size: 0x8, addend: 0x0, symName: __ZNSt3__19allocatorIPNS_16__hash_node_baseIPNS_11__hash_nodeINS_17__hash_value_typeINS_12basic_stringIcNS_11char_traitsIcEENS0_IcEEEElEEPvEEEEEC2B8ue170006Ev, symObjAddr: 0x98F4, symBinAddr: 0x10000BCA8, symSize: 0x84 }
  - { offsetInCU: 0x22D9B, offset: 0x22D9B, size: 0x8, addend: 0x0, symName: __ZNSt3__116__non_trivial_ifILb1ENS_9allocatorIPNS_16__hash_node_baseIPNS_11__hash_nodeINS_17__hash_value_typeINS_12basic_stringIcNS_11char_traitsIcEENS1_IcEEEElEEPvEEEEEEEC2B8ue170006Ev, symObjAddr: 0x9978, symBinAddr: 0x10000BD2C, symSize: 0x54 }
  - { offsetInCU: 0x22DC5, offset: 0x22DC5, size: 0x8, addend: 0x0, symName: __ZNSt3__117__compressed_pairINS_16__hash_node_baseIPNS_11__hash_nodeINS_17__hash_value_typeINS_12basic_stringIcNS_11char_traitsIcEENS_9allocatorIcEEEElEEPvEEEENS7_ISC_EEEC2B8ue170006ILb1EvEEv, symObjAddr: 0x99CC, symBinAddr: 0x10000BD80, symSize: 0xEC }
  - { offsetInCU: 0x22DFA, offset: 0x22DFA, size: 0x8, addend: 0x0, symName: __ZNSt3__122__compressed_pair_elemINS_16__hash_node_baseIPNS_11__hash_nodeINS_17__hash_value_typeINS_12basic_stringIcNS_11char_traitsIcEENS_9allocatorIcEEEElEEPvEEEELi0ELb0EEC2B8ue170006ENS_16__value_init_tagE, symObjAddr: 0x9AB8, symBinAddr: 0x10000BE6C, symSize: 0x78 }
  - { offsetInCU: 0x22E2F, offset: 0x22E2F, size: 0x8, addend: 0x0, symName: __ZNSt3__122__compressed_pair_elemINS_9allocatorINS_11__hash_nodeINS_17__hash_value_typeINS_12basic_stringIcNS_11char_traitsIcEENS1_IcEEEElEEPvEEEELi1ELb1EEC2B8ue170006ENS_16__value_init_tagE, symObjAddr: 0x9B30, symBinAddr: 0x10000BEE4, symSize: 0x84 }
  - { offsetInCU: 0x22E64, offset: 0x22E64, size: 0x8, addend: 0x0, symName: __ZNSt3__116__hash_node_baseIPNS_11__hash_nodeINS_17__hash_value_typeINS_12basic_stringIcNS_11char_traitsIcEENS_9allocatorIcEEEElEEPvEEEC1B8ue170006Ev, symObjAddr: 0x9BB4, symBinAddr: 0x10000BF68, symSize: 0x78 }
  - { offsetInCU: 0x22E8E, offset: 0x22E8E, size: 0x8, addend: 0x0, symName: __ZNSt3__116__hash_node_baseIPNS_11__hash_nodeINS_17__hash_value_typeINS_12basic_stringIcNS_11char_traitsIcEENS_9allocatorIcEEEElEEPvEEEC2B8ue170006Ev, symObjAddr: 0x9C2C, symBinAddr: 0x10000BFE0, symSize: 0xB8 }
  - { offsetInCU: 0x22EB8, offset: 0x22EB8, size: 0x8, addend: 0x0, symName: __ZNSt3__19allocatorINS_11__hash_nodeINS_17__hash_value_typeINS_12basic_stringIcNS_11char_traitsIcEENS0_IcEEEElEEPvEEEC2B8ue170006Ev, symObjAddr: 0x9CE4, symBinAddr: 0x10000C098, symSize: 0x84 }
  - { offsetInCU: 0x22EE2, offset: 0x22EE2, size: 0x8, addend: 0x0, symName: __ZNSt3__116__non_trivial_ifILb1ENS_9allocatorINS_11__hash_nodeINS_17__hash_value_typeINS_12basic_stringIcNS_11char_traitsIcEENS1_IcEEEElEEPvEEEEEC2B8ue170006Ev, symObjAddr: 0x9D68, symBinAddr: 0x10000C11C, symSize: 0x54 }
  - { offsetInCU: 0x22F0C, offset: 0x22F0C, size: 0x8, addend: 0x0, symName: __ZNSt3__117__compressed_pairImNS_22__unordered_map_hasherINS_12basic_stringIcNS_11char_traitsIcEENS_9allocatorIcEEEENS_17__hash_value_typeIS7_lEENS_4hashIS7_EENS_8equal_toIS7_EELb1EEEEC2B8ue170006IiNS_18__default_init_tagEEEOT_OT0_, symObjAddr: 0x9DBC, symBinAddr: 0x10000C170, symSize: 0x140 }
  - { offsetInCU: 0x22F64, offset: 0x22F64, size: 0x8, addend: 0x0, symName: __ZNSt3__122__compressed_pair_elemINS_22__unordered_map_hasherINS_12basic_stringIcNS_11char_traitsIcEENS_9allocatorIcEEEENS_17__hash_value_typeIS7_lEENS_4hashIS7_EENS_8equal_toIS7_EELb1EEELi1ELb1EEC2B8ue170006ENS_18__default_init_tagE, symObjAddr: 0x9EFC, symBinAddr: 0x10000C2B0, symSize: 0x84 }
  - { offsetInCU: 0x22F99, offset: 0x22F99, size: 0x8, addend: 0x0, symName: __ZNSt3__122__unordered_map_hasherINS_12basic_stringIcNS_11char_traitsIcEENS_9allocatorIcEEEENS_17__hash_value_typeIS6_lEENS_4hashIS6_EENS_8equal_toIS6_EELb1EEC2B8ue170006Ev, symObjAddr: 0x9F80, symBinAddr: 0x10000C334, symSize: 0x54 }
  - { offsetInCU: 0x22FC3, offset: 0x22FC3, size: 0x8, addend: 0x0, symName: __ZNSt3__117__compressed_pairIfNS_21__unordered_map_equalINS_12basic_stringIcNS_11char_traitsIcEENS_9allocatorIcEEEENS_17__hash_value_typeIS7_lEENS_8equal_toIS7_EENS_4hashIS7_EELb1EEEEC2B8ue170006IfNS_18__default_init_tagEEEOT_OT0_, symObjAddr: 0x9FD4, symBinAddr: 0x10000C388, symSize: 0x140 }
  - { offsetInCU: 0x2301B, offset: 0x2301B, size: 0x8, addend: 0x0, symName: __ZNSt3__122__compressed_pair_elemIfLi0ELb0EEC2B8ue170006IfvEEOT_, symObjAddr: 0xA114, symBinAddr: 0x10000C4C8, symSize: 0x194 }
  - { offsetInCU: 0x2305D, offset: 0x2305D, size: 0x8, addend: 0x0, symName: __ZNSt3__122__compressed_pair_elemINS_21__unordered_map_equalINS_12basic_stringIcNS_11char_traitsIcEENS_9allocatorIcEEEENS_17__hash_value_typeIS7_lEENS_8equal_toIS7_EENS_4hashIS7_EELb1EEELi1ELb1EEC2B8ue170006ENS_18__default_init_tagE, symObjAddr: 0xA2A8, symBinAddr: 0x10000C65C, symSize: 0x84 }
  - { offsetInCU: 0x23092, offset: 0x23092, size: 0x8, addend: 0x0, symName: __ZNSt3__121__unordered_map_equalINS_12basic_stringIcNS_11char_traitsIcEENS_9allocatorIcEEEENS_17__hash_value_typeIS6_lEENS_8equal_toIS6_EENS_4hashIS6_EELb1EEC2B8ue170006Ev, symObjAddr: 0xA32C, symBinAddr: 0x10000C6E0, symSize: 0x54 }
  - { offsetInCU: 0x230D3, offset: 0x230D3, size: 0x8, addend: 0x0, symName: __ZNSt3__112__hash_tableINS_17__hash_value_typeINS_12basic_stringIcNS_11char_traitsIcEENS_9allocatorIcEEEElEENS_22__unordered_map_hasherIS7_S8_NS_4hashIS7_EENS_8equal_toIS7_EELb1EEENS_21__unordered_map_equalIS7_S8_SD_SB_Lb1EEENS5_IS8_EEE25__emplace_unique_key_argsIS7_JRKNS_21piecewise_construct_tENS_5tupleIJOS7_EEENSN_IJEEEEEENS_4pairINS_15__hash_iteratorIPNS_11__hash_nodeIS8_PvEEEEbEERKT_DpOT0_, symObjAddr: 0xA380, symBinAddr: 0x10000C734, symSize: 0x1DD0 }
  - { offsetInCU: 0x231E7, offset: 0x231E7, size: 0x8, addend: 0x0, symName: __ZNKSt3__115__hash_iteratorIPNS_11__hash_nodeINS_17__hash_value_typeINS_12basic_stringIcNS_11char_traitsIcEENS_9allocatorIcEEEElEEPvEEEptB8ue170006Ev, symObjAddr: 0xC398, symBinAddr: 0x10000E74C, symSize: 0x190 }
  - { offsetInCU: 0x2320D, offset: 0x2320D, size: 0x8, addend: 0x0, symName: __ZNSt3__117__hash_value_typeINS_12basic_stringIcNS_11char_traitsIcEENS_9allocatorIcEEEElE11__get_valueB8ue170006Ev, symObjAddr: 0xC528, symBinAddr: 0x10000E8DC, symSize: 0xB4 }
  - { offsetInCU: 0x23233, offset: 0x23233, size: 0x8, addend: 0x0, symName: __ZNSt3__112__hash_tableINS_17__hash_value_typeINS_12basic_stringIcNS_11char_traitsIcEENS_9allocatorIcEEEElEENS_22__unordered_map_hasherIS7_S8_NS_4hashIS7_EENS_8equal_toIS7_EELb1EEENS_21__unordered_map_equalIS7_S8_SD_SB_Lb1EEENS5_IS8_EEE13hash_functionB8ue170006Ev, symObjAddr: 0xC5DC, symBinAddr: 0x10000E990, symSize: 0xE4 }
  - { offsetInCU: 0x23259, offset: 0x23259, size: 0x8, addend: 0x0, symName: __ZNKSt3__122__unordered_map_hasherINS_12basic_stringIcNS_11char_traitsIcEENS_9allocatorIcEEEENS_17__hash_value_typeIS6_lEENS_4hashIS6_EENS_8equal_toIS6_EELb1EEclB8ue170006ERKS6_, symObjAddr: 0xC6C0, symBinAddr: 0x10000EA74, symSize: 0xC8 }
  - { offsetInCU: 0x2328E, offset: 0x2328E, size: 0x8, addend: 0x0, symName: __ZNKSt3__112__hash_tableINS_17__hash_value_typeINS_12basic_stringIcNS_11char_traitsIcEENS_9allocatorIcEEEElEENS_22__unordered_map_hasherIS7_S8_NS_4hashIS7_EENS_8equal_toIS7_EELb1EEENS_21__unordered_map_equalIS7_S8_SD_SB_Lb1EEENS5_IS8_EEE12bucket_countB8ue170006Ev, symObjAddr: 0xC788, symBinAddr: 0x10000EB3C, symSize: 0xFC }
  - { offsetInCU: 0x232B4, offset: 0x232B4, size: 0x8, addend: 0x0, symName: __ZNKSt3__110unique_ptrIA_PNS_16__hash_node_baseIPNS_11__hash_nodeINS_17__hash_value_typeINS_12basic_stringIcNS_11char_traitsIcEENS_9allocatorIcEEEElEEPvEEEENS_25__bucket_list_deallocatorINS7_ISF_EEEEEixB8ue170006Em, symObjAddr: 0xC960, symBinAddr: 0x10000ED14, symSize: 0x25C }
  - { offsetInCU: 0x232E9, offset: 0x232E9, size: 0x8, addend: 0x0, symName: __ZNKSt3__116__hash_node_baseIPNS_11__hash_nodeINS_17__hash_value_typeINS_12basic_stringIcNS_11char_traitsIcEENS_9allocatorIcEEEElEEPvEEE6__hashB8ue170006Ev, symObjAddr: 0xCBBC, symBinAddr: 0x10000EF70, symSize: 0x180 }
  - { offsetInCU: 0x2330F, offset: 0x2330F, size: 0x8, addend: 0x0, symName: __ZNSt3__112__hash_tableINS_17__hash_value_typeINS_12basic_stringIcNS_11char_traitsIcEENS_9allocatorIcEEEElEENS_22__unordered_map_hasherIS7_S8_NS_4hashIS7_EENS_8equal_toIS7_EELb1EEENS_21__unordered_map_equalIS7_S8_SD_SB_Lb1EEENS5_IS8_EEE6key_eqB8ue170006Ev, symObjAddr: 0xCD3C, symBinAddr: 0x10000F0F0, symSize: 0xE4 }
  - { offsetInCU: 0x23335, offset: 0x23335, size: 0x8, addend: 0x0, symName: __ZNKSt3__121__unordered_map_equalINS_12basic_stringIcNS_11char_traitsIcEENS_9allocatorIcEEEENS_17__hash_value_typeIS6_lEENS_8equal_toIS6_EENS_4hashIS6_EELb1EEclB8ue170006ERKS8_RKS6_, symObjAddr: 0xCE20, symBinAddr: 0x10000F1D4, symSize: 0x190 }
  - { offsetInCU: 0x23379, offset: 0x23379, size: 0x8, addend: 0x0, symName: __ZNSt3__116__hash_node_baseIPNS_11__hash_nodeINS_17__hash_value_typeINS_12basic_stringIcNS_11char_traitsIcEENS_9allocatorIcEEEElEEPvEEE8__upcastB8ue170006Ev, symObjAddr: 0xCFB0, symBinAddr: 0x10000F364, symSize: 0xF8 }
  - { offsetInCU: 0x2339F, offset: 0x2339F, size: 0x8, addend: 0x0, symName: __ZNSt3__112__hash_tableINS_17__hash_value_typeINS_12basic_stringIcNS_11char_traitsIcEENS_9allocatorIcEEEElEENS_22__unordered_map_hasherIS7_S8_NS_4hashIS7_EENS_8equal_toIS7_EELb1EEENS_21__unordered_map_equalIS7_S8_SD_SB_Lb1EEENS5_IS8_EEE21__construct_node_hashIRKNS_21piecewise_construct_tEJNS_5tupleIJOS7_EEENSN_IJEEEEEENS_10unique_ptrINS_11__hash_nodeIS8_PvEENS_22__hash_node_destructorINS5_ISU_EEEEEEmOT_DpOT0_, symObjAddr: 0xD0A8, symBinAddr: 0x10000F45C, symSize: 0x948 }
  - { offsetInCU: 0x23442, offset: 0x23442, size: 0x8, addend: 0x0, symName: __ZNSt3__112__hash_tableINS_17__hash_value_typeINS_12basic_stringIcNS_11char_traitsIcEENS_9allocatorIcEEEElEENS_22__unordered_map_hasherIS7_S8_NS_4hashIS7_EENS_8equal_toIS7_EELb1EEENS_21__unordered_map_equalIS7_S8_SD_SB_Lb1EEENS5_IS8_EEE4sizeB8ue170006Ev, symObjAddr: 0xD9F0, symBinAddr: 0x10000FDA4, symSize: 0x100 }
  - { offsetInCU: 0x23468, offset: 0x23468, size: 0x8, addend: 0x0, symName: __ZNSt3__112__hash_tableINS_17__hash_value_typeINS_12basic_stringIcNS_11char_traitsIcEENS_9allocatorIcEEEElEENS_22__unordered_map_hasherIS7_S8_NS_4hashIS7_EENS_8equal_toIS7_EELb1EEENS_21__unordered_map_equalIS7_S8_SD_SB_Lb1EEENS5_IS8_EEE15max_load_factorB8ue170006Ev, symObjAddr: 0xDAF0, symBinAddr: 0x10000FEA4, symSize: 0x100 }
  - { offsetInCU: 0x2348E, offset: 0x2348E, size: 0x8, addend: 0x0, symName: __ZNSt3__112__hash_tableINS_17__hash_value_typeINS_12basic_stringIcNS_11char_traitsIcEENS_9allocatorIcEEEElEENS_22__unordered_map_hasherIS7_S8_NS_4hashIS7_EENS_8equal_toIS7_EELb1EEENS_21__unordered_map_equalIS7_S8_SD_SB_Lb1EEENS5_IS8_EEE15__rehash_uniqueB8ue170006Em, symObjAddr: 0xDBF0, symBinAddr: 0x10000FFA4, symSize: 0x74 }
  - { offsetInCU: 0x234C3, offset: 0x234C3, size: 0x8, addend: 0x0, symName: __Z4ceilB8ue170006f, symObjAddr: 0xDDB8, symBinAddr: 0x10001016C, symSize: 0x18 }
  - { offsetInCU: 0x234F2, offset: 0x234F2, size: 0x8, addend: 0x0, symName: __ZNSt3__117__compressed_pairINS_16__hash_node_baseIPNS_11__hash_nodeINS_17__hash_value_typeINS_12basic_stringIcNS_11char_traitsIcEENS_9allocatorIcEEEElEEPvEEEENS7_ISC_EEE5firstB8ue170006Ev, symObjAddr: 0xDDD0, symBinAddr: 0x100010184, symSize: 0x124 }
  - { offsetInCU: 0x23518, offset: 0x23518, size: 0x8, addend: 0x0, symName: __ZNSt3__116__hash_node_baseIPNS_11__hash_nodeINS_17__hash_value_typeINS_12basic_stringIcNS_11char_traitsIcEENS_9allocatorIcEEEElEEPvEEE5__ptrB8ue170006Ev, symObjAddr: 0xDEF4, symBinAddr: 0x1000102A8, symSize: 0xB0 }
  - { offsetInCU: 0x2353E, offset: 0x2353E, size: 0x8, addend: 0x0, symName: __ZNKSt3__110unique_ptrINS_11__hash_nodeINS_17__hash_value_typeINS_12basic_stringIcNS_11char_traitsIcEENS_9allocatorIcEEEElEEPvEENS_22__hash_node_destructorINS6_ISB_EEEEEptB8ue170006Ev, symObjAddr: 0xDFA4, symBinAddr: 0x100010358, symSize: 0x13C }
  - { offsetInCU: 0x23564, offset: 0x23564, size: 0x8, addend: 0x0, symName: __ZNKSt3__110unique_ptrINS_11__hash_nodeINS_17__hash_value_typeINS_12basic_stringIcNS_11char_traitsIcEENS_9allocatorIcEEEElEEPvEENS_22__hash_node_destructorINS6_ISB_EEEEE3getB8ue170006Ev, symObjAddr: 0xE0E0, symBinAddr: 0x100010494, symSize: 0x13C }
  - { offsetInCU: 0x2358A, offset: 0x2358A, size: 0x8, addend: 0x0, symName: __ZNSt3__110unique_ptrINS_11__hash_nodeINS_17__hash_value_typeINS_12basic_stringIcNS_11char_traitsIcEENS_9allocatorIcEEEElEEPvEENS_22__hash_node_destructorINS6_ISB_EEEEE7releaseB8ue170006Ev, symObjAddr: 0xE21C, symBinAddr: 0x1000105D0, symSize: 0x20C }
  - { offsetInCU: 0x235BF, offset: 0x235BF, size: 0x8, addend: 0x0, symName: __ZNSt3__110unique_ptrINS_11__hash_nodeINS_17__hash_value_typeINS_12basic_stringIcNS_11char_traitsIcEENS_9allocatorIcEEEElEEPvEENS_22__hash_node_destructorINS6_ISB_EEEEED1B8ue170006Ev, symObjAddr: 0xE428, symBinAddr: 0x1000107DC, symSize: 0x78 }
  - { offsetInCU: 0x235E9, offset: 0x235E9, size: 0x8, addend: 0x0, symName: __ZNSt3__115__hash_iteratorIPNS_11__hash_nodeINS_17__hash_value_typeINS_12basic_stringIcNS_11char_traitsIcEENS_9allocatorIcEEEElEEPvEEEC1B8ue170006EPNS_16__hash_node_baseISC_EE, symObjAddr: 0xE4A0, symBinAddr: 0x100010854, symSize: 0x80 }
  - { offsetInCU: 0x23628, offset: 0x23628, size: 0x8, addend: 0x0, symName: __ZNSt3__14pairINS_15__hash_iteratorIPNS_11__hash_nodeINS_17__hash_value_typeINS_12basic_stringIcNS_11char_traitsIcEENS_9allocatorIcEEEElEEPvEEEEbEC1B8ue170006ISE_RbLSB_0EEEOT_OT0_, symObjAddr: 0xE520, symBinAddr: 0x1000108D4, symSize: 0x88 }
  - { offsetInCU: 0x23686, offset: 0x23686, size: 0x8, addend: 0x0, symName: __ZNSt3__117__compressed_pairImNS_22__unordered_map_hasherINS_12basic_stringIcNS_11char_traitsIcEENS_9allocatorIcEEEENS_17__hash_value_typeIS7_lEENS_4hashIS7_EENS_8equal_toIS7_EELb1EEEE6secondB8ue170006Ev, symObjAddr: 0xE5A8, symBinAddr: 0x10001095C, symSize: 0x108 }
  - { offsetInCU: 0x236AC, offset: 0x236AC, size: 0x8, addend: 0x0, symName: __ZNSt3__122__compressed_pair_elemINS_22__unordered_map_hasherINS_12basic_stringIcNS_11char_traitsIcEENS_9allocatorIcEEEENS_17__hash_value_typeIS7_lEENS_4hashIS7_EENS_8equal_toIS7_EELb1EEELi1ELb1EE5__getB8ue170006Ev, symObjAddr: 0xE6B0, symBinAddr: 0x100010A64, symSize: 0x74 }
  - { offsetInCU: 0x236D2, offset: 0x236D2, size: 0x8, addend: 0x0, symName: __ZNKSt3__113__string_hashIcNS_9allocatorIcEEEclB8ue170006ERKNS_12basic_stringIcNS_11char_traitsIcEES2_EE, symObjAddr: 0xE724, symBinAddr: 0x100010AD8, symSize: 0x1EC }
  - { offsetInCU: 0x23707, offset: 0x23707, size: 0x8, addend: 0x0, symName: __ZNKSt3__121__murmur2_or_cityhashImLm64EEclB8ue170006EPKvm, symObjAddr: 0xEAFC, symBinAddr: 0x100010EB0, symSize: 0x1C6C }
  - { offsetInCU: 0x237B3, offset: 0x237B3, size: 0x8, addend: 0x0, symName: __ZNSt3__121__murmur2_or_cityhashImLm64EE18__hash_len_0_to_16B8ue170006EPKcm, symObjAddr: 0x10768, symBinAddr: 0x100012B1C, symSize: 0x88C }
  - { offsetInCU: 0x23894, offset: 0x23894, size: 0x8, addend: 0x0, symName: __ZNSt3__121__murmur2_or_cityhashImLm64EE19__hash_len_17_to_32B8ue170006EPKcm, symObjAddr: 0x10FF4, symBinAddr: 0x1000133A8, symSize: 0x494 }
  - { offsetInCU: 0x238FD, offset: 0x238FD, size: 0x8, addend: 0x0, symName: __ZNSt3__121__murmur2_or_cityhashImLm64EE19__hash_len_33_to_64B8ue170006EPKcm, symObjAddr: 0x11488, symBinAddr: 0x10001383C, symSize: 0xBEC }
  - { offsetInCU: 0x239B4, offset: 0x239B4, size: 0x8, addend: 0x0, symName: __ZNSt3__121__murmur2_or_cityhashImLm64EE13__hash_len_16B8ue170006Emm, symObjAddr: 0x12288, symBinAddr: 0x10001463C, symSize: 0xF0 }
  - { offsetInCU: 0x23A0F, offset: 0x23A0F, size: 0x8, addend: 0x0, symName: __ZNSt3__121__murmur2_or_cityhashImLm64EE29__weak_hash_len_32_with_seedsB8ue170006EPKcmm, symObjAddr: 0x12378, symBinAddr: 0x10001472C, symSize: 0x42C }
  - { offsetInCU: 0x23A51, offset: 0x23A51, size: 0x8, addend: 0x0, symName: __ZNSt3__121__murmur2_or_cityhashImLm64EE8__rotateB8ue170006Emi, symObjAddr: 0x127A4, symBinAddr: 0x100014B58, symSize: 0x11C }
  - { offsetInCU: 0x23A82, offset: 0x23A82, size: 0x8, addend: 0x0, symName: __ZNSt3__14pairImmEaSB8ue170006EOS1_, symObjAddr: 0x128C0, symBinAddr: 0x100014C74, symSize: 0x248 }
  - { offsetInCU: 0x23AB7, offset: 0x23AB7, size: 0x8, addend: 0x0, symName: __ZNSt3__121__murmur2_or_cityhashImLm64EE11__shift_mixB8ue170006Em, symObjAddr: 0x12CC8, symBinAddr: 0x10001507C, symSize: 0x5C }
  - { offsetInCU: 0x23ADA, offset: 0x23ADA, size: 0x8, addend: 0x0, symName: __ZNSt3__121__murmur2_or_cityhashImLm64EE22__rotate_by_at_least_1B8ue170006Emi, symObjAddr: 0x12D24, symBinAddr: 0x1000150D8, symSize: 0xF0 }
  - { offsetInCU: 0x23B0B, offset: 0x23B0B, size: 0x8, addend: 0x0, symName: __ZNSt3__121__murmur2_or_cityhashImLm64EE29__weak_hash_len_32_with_seedsB8ue170006Emmmmmm, symObjAddr: 0x13054, symBinAddr: 0x100015408, symSize: 0x398 }
  - { offsetInCU: 0x23B8F, offset: 0x23B8F, size: 0x8, addend: 0x0, symName: __ZNSt3__14pairImmEC1B8ue170006ImmLPv0EEEOT_OT0_, symObjAddr: 0x133EC, symBinAddr: 0x1000157A0, symSize: 0x88 }
  - { offsetInCU: 0x23BED, offset: 0x23BED, size: 0x8, addend: 0x0, symName: __ZNSt3__14pairImmEC2B8ue170006ImmLPv0EEEOT_OT0_, symObjAddr: 0x13474, symBinAddr: 0x100015828, symSize: 0x210 }
  - { offsetInCU: 0x23C4B, offset: 0x23C4B, size: 0x8, addend: 0x0, symName: __ZNKSt3__110unique_ptrIA_PNS_16__hash_node_baseIPNS_11__hash_nodeINS_17__hash_value_typeINS_12basic_stringIcNS_11char_traitsIcEENS_9allocatorIcEEEElEEPvEEEENS_25__bucket_list_deallocatorINS7_ISF_EEEEE11get_deleterB8ue170006Ev, symObjAddr: 0x13684, symBinAddr: 0x100015A38, symSize: 0xF8 }
  - { offsetInCU: 0x23C71, offset: 0x23C71, size: 0x8, addend: 0x0, symName: __ZNKSt3__125__bucket_list_deallocatorINS_9allocatorIPNS_16__hash_node_baseIPNS_11__hash_nodeINS_17__hash_value_typeINS_12basic_stringIcNS_11char_traitsIcEENS1_IcEEEElEEPvEEEEEEE4sizeB8ue170006Ev, symObjAddr: 0x1377C, symBinAddr: 0x100015B30, symSize: 0x13C }
  - { offsetInCU: 0x23C97, offset: 0x23C97, size: 0x8, addend: 0x0, symName: __ZNKSt3__117__compressed_pairIPPNS_16__hash_node_baseIPNS_11__hash_nodeINS_17__hash_value_typeINS_12basic_stringIcNS_11char_traitsIcEENS_9allocatorIcEEEElEEPvEEEENS_25__bucket_list_deallocatorINS7_ISF_EEEEE6secondB8ue170006Ev, symObjAddr: 0x138B8, symBinAddr: 0x100015C6C, symSize: 0x12C }
  - { offsetInCU: 0x23CBD, offset: 0x23CBD, size: 0x8, addend: 0x0, symName: __ZNKSt3__122__compressed_pair_elemINS_25__bucket_list_deallocatorINS_9allocatorIPNS_16__hash_node_baseIPNS_11__hash_nodeINS_17__hash_value_typeINS_12basic_stringIcNS_11char_traitsIcEENS2_IcEEEElEEPvEEEEEEEELi1ELb0EE5__getB8ue170006Ev, symObjAddr: 0x139E4, symBinAddr: 0x100015D98, symSize: 0xAC }
  - { offsetInCU: 0x23CE3, offset: 0x23CE3, size: 0x8, addend: 0x0, symName: __ZNKSt3__117__compressed_pairImNS_9allocatorIPNS_16__hash_node_baseIPNS_11__hash_nodeINS_17__hash_value_typeINS_12basic_stringIcNS_11char_traitsIcEENS1_IcEEEElEEPvEEEEEEE5firstB8ue170006Ev, symObjAddr: 0x13A90, symBinAddr: 0x100015E44, symSize: 0x124 }
  - { offsetInCU: 0x23D09, offset: 0x23D09, size: 0x8, addend: 0x0, symName: __ZNKSt3__122__compressed_pair_elemImLi0ELb0EE5__getB8ue170006Ev, symObjAddr: 0x13BB4, symBinAddr: 0x100015F68, symSize: 0xAC }
  - { offsetInCU: 0x23D2F, offset: 0x23D2F, size: 0x8, addend: 0x0, symName: __ZNKSt3__117__compressed_pairIPPNS_16__hash_node_baseIPNS_11__hash_nodeINS_17__hash_value_typeINS_12basic_stringIcNS_11char_traitsIcEENS_9allocatorIcEEEElEEPvEEEENS_25__bucket_list_deallocatorINS7_ISF_EEEEE5firstB8ue170006Ev, symObjAddr: 0x13C60, symBinAddr: 0x100016014, symSize: 0x124 }
  - { offsetInCU: 0x23D55, offset: 0x23D55, size: 0x8, addend: 0x0, symName: __ZNKSt3__122__compressed_pair_elemIPPNS_16__hash_node_baseIPNS_11__hash_nodeINS_17__hash_value_typeINS_12basic_stringIcNS_11char_traitsIcEENS_9allocatorIcEEEElEEPvEEEELi0ELb0EE5__getB8ue170006Ev, symObjAddr: 0x13D84, symBinAddr: 0x100016138, symSize: 0xAC }
  - { offsetInCU: 0x23D7B, offset: 0x23D7B, size: 0x8, addend: 0x0, symName: __ZNSt3__117__compressed_pairIfNS_21__unordered_map_equalINS_12basic_stringIcNS_11char_traitsIcEENS_9allocatorIcEEEENS_17__hash_value_typeIS7_lEENS_8equal_toIS7_EENS_4hashIS7_EELb1EEEE6secondB8ue170006Ev, symObjAddr: 0x13E30, symBinAddr: 0x1000161E4, symSize: 0x108 }
  - { offsetInCU: 0x23DA1, offset: 0x23DA1, size: 0x8, addend: 0x0, symName: __ZNSt3__122__compressed_pair_elemINS_21__unordered_map_equalINS_12basic_stringIcNS_11char_traitsIcEENS_9allocatorIcEEEENS_17__hash_value_typeIS7_lEENS_8equal_toIS7_EENS_4hashIS7_EELb1EEELi1ELb1EE5__getB8ue170006Ev, symObjAddr: 0x13F38, symBinAddr: 0x1000162EC, symSize: 0x74 }
  - { offsetInCU: 0x23DC7, offset: 0x23DC7, size: 0x8, addend: 0x0, symName: __ZNKSt3__18equal_toINS_12basic_stringIcNS_11char_traitsIcEENS_9allocatorIcEEEEEclB8ue170006ERKS6_S9_, symObjAddr: 0x13FAC, symBinAddr: 0x100016360, symSize: 0xF0 }
  - { offsetInCU: 0x23E0B, offset: 0x23E0B, size: 0x8, addend: 0x0, symName: __ZNKSt3__117__hash_value_typeINS_12basic_stringIcNS_11char_traitsIcEENS_9allocatorIcEEEElE11__get_valueB8ue170006Ev, symObjAddr: 0x1409C, symBinAddr: 0x100016450, symSize: 0xB4 }
  - { offsetInCU: 0x23E31, offset: 0x23E31, size: 0x8, addend: 0x0, symName: __ZNSt3__114pointer_traitsIPNS_16__hash_node_baseIPNS_11__hash_nodeINS_17__hash_value_typeINS_12basic_stringIcNS_11char_traitsIcEENS_9allocatorIcEEEElEEPvEEEEE10pointer_toB8ue170006ERSE_, symObjAddr: 0x145E0, symBinAddr: 0x100016994, symSize: 0x14 }
  - { offsetInCU: 0x23E54, offset: 0x23E54, size: 0x8, addend: 0x0, symName: __ZNSt3__112__hash_tableINS_17__hash_value_typeINS_12basic_stringIcNS_11char_traitsIcEENS_9allocatorIcEEEElEENS_22__unordered_map_hasherIS7_S8_NS_4hashIS7_EENS_8equal_toIS7_EELb1EEENS_21__unordered_map_equalIS7_S8_SD_SB_Lb1EEENS5_IS8_EEE12__node_allocB8ue170006Ev, symObjAddr: 0x145F4, symBinAddr: 0x1000169A8, symSize: 0xE4 }
  - { offsetInCU: 0x23E7A, offset: 0x23E7A, size: 0x8, addend: 0x0, symName: __ZNSt3__116allocator_traitsINS_9allocatorINS_11__hash_nodeINS_17__hash_value_typeINS_12basic_stringIcNS_11char_traitsIcEENS1_IcEEEElEEPvEEEEE8allocateB8ue170006ERSC_m, symObjAddr: 0x146D8, symBinAddr: 0x100016A8C, symSize: 0x2C }
  - { offsetInCU: 0x23EAD, offset: 0x23EAD, size: 0x8, addend: 0x0, symName: __ZNSt3__122__hash_node_destructorINS_9allocatorINS_11__hash_nodeINS_17__hash_value_typeINS_12basic_stringIcNS_11char_traitsIcEENS1_IcEEEElEEPvEEEEEC1B8ue170006ERSC_b, symObjAddr: 0x14704, symBinAddr: 0x100016AB8, symSize: 0xCC }
  - { offsetInCU: 0x23EFB, offset: 0x23EFB, size: 0x8, addend: 0x0, symName: __ZNSt3__110unique_ptrINS_11__hash_nodeINS_17__hash_value_typeINS_12basic_stringIcNS_11char_traitsIcEENS_9allocatorIcEEEElEEPvEENS_22__hash_node_destructorINS6_ISB_EEEEEC1B8ue170006ILb1EvEEPSB_NS_16__dependent_typeINS_27__unique_ptr_deleter_sfinaeISE_EEXT_EE20__good_rval_ref_typeE, symObjAddr: 0x147D0, symBinAddr: 0x100016B84, symSize: 0x88 }
  - { offsetInCU: 0x23F4C, offset: 0x23F4C, size: 0x8, addend: 0x0, symName: __ZNSt3__116allocator_traitsINS_9allocatorINS_11__hash_nodeINS_17__hash_value_typeINS_12basic_stringIcNS_11char_traitsIcEENS1_IcEEEElEEPvEEEEE9constructB8ue170006INS_4pairIKS8_lEEJRKNS_21piecewise_construct_tENS_5tupleIJOS8_EEENSL_IJEEEEvvEEvRSC_PT_DpOT0_, symObjAddr: 0x14858, symBinAddr: 0x100016C0C, symSize: 0xE8 }
  - { offsetInCU: 0x23FC9, offset: 0x23FC9, size: 0x8, addend: 0x0, symName: __ZNSt3__122__hash_key_value_typesINS_17__hash_value_typeINS_12basic_stringIcNS_11char_traitsIcEENS_9allocatorIcEEEElEEE9__get_ptrB8ue170006ERS8_, symObjAddr: 0x14940, symBinAddr: 0x100016CF4, symSize: 0x50 }
  - { offsetInCU: 0x23FEC, offset: 0x23FEC, size: 0x8, addend: 0x0, symName: __ZNSt3__110unique_ptrINS_11__hash_nodeINS_17__hash_value_typeINS_12basic_stringIcNS_11char_traitsIcEENS_9allocatorIcEEEElEEPvEENS_22__hash_node_destructorINS6_ISB_EEEEE11get_deleterB8ue170006Ev, symObjAddr: 0x14990, symBinAddr: 0x100016D44, symSize: 0xF8 }
  - { offsetInCU: 0x24012, offset: 0x24012, size: 0x8, addend: 0x0, symName: __ZNSt3__117__compressed_pairINS_16__hash_node_baseIPNS_11__hash_nodeINS_17__hash_value_typeINS_12basic_stringIcNS_11char_traitsIcEENS_9allocatorIcEEEElEEPvEEEENS7_ISC_EEE6secondB8ue170006Ev, symObjAddr: 0x14A88, symBinAddr: 0x100016E3C, symSize: 0x108 }
  - { offsetInCU: 0x24038, offset: 0x24038, size: 0x8, addend: 0x0, symName: __ZNSt3__122__compressed_pair_elemINS_9allocatorINS_11__hash_nodeINS_17__hash_value_typeINS_12basic_stringIcNS_11char_traitsIcEENS1_IcEEEElEEPvEEEELi1ELb1EE5__getB8ue170006Ev, symObjAddr: 0x14B90, symBinAddr: 0x100016F44, symSize: 0x74 }
  - { offsetInCU: 0x2405E, offset: 0x2405E, size: 0x8, addend: 0x0, symName: __ZNSt3__19allocatorINS_11__hash_nodeINS_17__hash_value_typeINS_12basic_stringIcNS_11char_traitsIcEENS0_IcEEEElEEPvEEE8allocateB8ue170006Em, symObjAddr: 0x14C04, symBinAddr: 0x100016FB8, symSize: 0xD0 }
  - { offsetInCU: 0x2409D, offset: 0x2409D, size: 0x8, addend: 0x0, symName: __ZNSt3__116allocator_traitsINS_9allocatorINS_11__hash_nodeINS_17__hash_value_typeINS_12basic_stringIcNS_11char_traitsIcEENS1_IcEEEElEEPvEEEEE8max_sizeB8ue170006ISC_vvEEmRKSC_, symObjAddr: 0x14CD4, symBinAddr: 0x100017088, symSize: 0x54 }
  - { offsetInCU: 0x240C9, offset: 0x240C9, size: 0x8, addend: 0x0, symName: __ZNSt3__114numeric_limitsImE3maxB8ue170006Ev, symObjAddr: 0x14E04, symBinAddr: 0x1000171B8, symSize: 0x14 }
  - { offsetInCU: 0x240DD, offset: 0x240DD, size: 0x8, addend: 0x0, symName: __ZNSt3__123__libcpp_numeric_limitsImLb1EE3maxB8ue170006Ev, symObjAddr: 0x14E18, symBinAddr: 0x1000171CC, symSize: 0x8 }
  - { offsetInCU: 0x240F1, offset: 0x240F1, size: 0x8, addend: 0x0, symName: __ZNSt3__122__hash_node_destructorINS_9allocatorINS_11__hash_nodeINS_17__hash_value_typeINS_12basic_stringIcNS_11char_traitsIcEENS1_IcEEEElEEPvEEEEEC2B8ue170006ERSC_b, symObjAddr: 0x14ED0, symBinAddr: 0x100017284, symSize: 0x1A0 }
  - { offsetInCU: 0x24139, offset: 0x24139, size: 0x8, addend: 0x0, symName: __ZNSt3__110unique_ptrINS_11__hash_nodeINS_17__hash_value_typeINS_12basic_stringIcNS_11char_traitsIcEENS_9allocatorIcEEEElEEPvEENS_22__hash_node_destructorINS6_ISB_EEEEEC2B8ue170006ILb1EvEEPSB_NS_16__dependent_typeINS_27__unique_ptr_deleter_sfinaeISE_EEXT_EE20__good_rval_ref_typeE, symObjAddr: 0x15070, symBinAddr: 0x100017424, symSize: 0x2BC }
  - { offsetInCU: 0x24190, offset: 0x24190, size: 0x8, addend: 0x0, symName: __ZNSt3__117__compressed_pairIPNS_11__hash_nodeINS_17__hash_value_typeINS_12basic_stringIcNS_11char_traitsIcEENS_9allocatorIcEEEElEEPvEENS_22__hash_node_destructorINS6_ISB_EEEEEC1B8ue170006IRSC_SF_EEOT_OT0_, symObjAddr: 0x1532C, symBinAddr: 0x1000176E0, symSize: 0x88 }
  - { offsetInCU: 0x241E8, offset: 0x241E8, size: 0x8, addend: 0x0, symName: __ZNSt3__117__compressed_pairIPNS_11__hash_nodeINS_17__hash_value_typeINS_12basic_stringIcNS_11char_traitsIcEENS_9allocatorIcEEEElEEPvEENS_22__hash_node_destructorINS6_ISB_EEEEEC2B8ue170006IRSC_SF_EEOT_OT0_, symObjAddr: 0x153B4, symBinAddr: 0x100017768, symSize: 0x1B4 }
  - { offsetInCU: 0x24240, offset: 0x24240, size: 0x8, addend: 0x0, symName: __ZNSt3__122__compressed_pair_elemIPNS_11__hash_nodeINS_17__hash_value_typeINS_12basic_stringIcNS_11char_traitsIcEENS_9allocatorIcEEEElEEPvEELi0ELb0EEC2B8ue170006IRSC_vEEOT_, symObjAddr: 0x15568, symBinAddr: 0x10001791C, symSize: 0x144 }
  - { offsetInCU: 0x24282, offset: 0x24282, size: 0x8, addend: 0x0, symName: __ZNSt3__122__compressed_pair_elemINS_22__hash_node_destructorINS_9allocatorINS_11__hash_nodeINS_17__hash_value_typeINS_12basic_stringIcNS_11char_traitsIcEENS2_IcEEEElEEPvEEEEEELi1ELb0EEC2B8ue170006ISE_vEEOT_, symObjAddr: 0x156AC, symBinAddr: 0x100017A60, symSize: 0x84 }
  - { offsetInCU: 0x242C4, offset: 0x242C4, size: 0x8, addend: 0x0, symName: __ZNSt3__14pairIKNS_12basic_stringIcNS_11char_traitsIcEENS_9allocatorIcEEEElEC1B8ue170006IJOS6_EJEEENS_21piecewise_construct_tENS_5tupleIJDpT_EEENSC_IJDpT0_EEE, symObjAddr: 0x159D8, symBinAddr: 0x100017D8C, symSize: 0x2A0 }
  - { offsetInCU: 0x24335, offset: 0x24335, size: 0x8, addend: 0x0, symName: __ZNSt3__14pairIKNS_12basic_stringIcNS_11char_traitsIcEENS_9allocatorIcEEEElEC1B8ue170006IJOS6_EJEJLm0EEJEEENS_21piecewise_construct_tERNS_5tupleIJDpT_EEERNSC_IJDpT0_EEENS_15__tuple_indicesIJXspT1_EEEENSL_IJXspT2_EEEE, symObjAddr: 0x15C78, symBinAddr: 0x10001802C, symSize: 0x88 }
  - { offsetInCU: 0x243C5, offset: 0x243C5, size: 0x8, addend: 0x0, symName: __ZNSt3__14pairIKNS_12basic_stringIcNS_11char_traitsIcEENS_9allocatorIcEEEElEC2B8ue170006IJOS6_EJEJLm0EEJEEENS_21piecewise_construct_tERNS_5tupleIJDpT_EEERNSC_IJDpT0_EEENS_15__tuple_indicesIJXspT1_EEEENSL_IJXspT2_EEEE, symObjAddr: 0x15D00, symBinAddr: 0x1000180B4, symSize: 0x164 }
  - { offsetInCU: 0x24455, offset: 0x24455, size: 0x8, addend: 0x0, symName: __ZNSt3__112__tuple_leafILm0EONS_12basic_stringIcNS_11char_traitsIcEENS_9allocatorIcEEEELb0EE3getB8ue170006Ev, symObjAddr: 0x15F44, symBinAddr: 0x1000182F8, symSize: 0xF4 }
  - { offsetInCU: 0x2447B, offset: 0x2447B, size: 0x8, addend: 0x0, symName: __ZNSt3__117__compressed_pairIPNS_11__hash_nodeINS_17__hash_value_typeINS_12basic_stringIcNS_11char_traitsIcEENS_9allocatorIcEEEElEEPvEENS_22__hash_node_destructorINS6_ISB_EEEEE6secondB8ue170006Ev, symObjAddr: 0x16038, symBinAddr: 0x1000183EC, symSize: 0x12C }
  - { offsetInCU: 0x244A1, offset: 0x244A1, size: 0x8, addend: 0x0, symName: __ZNSt3__122__compressed_pair_elemINS_22__hash_node_destructorINS_9allocatorINS_11__hash_nodeINS_17__hash_value_typeINS_12basic_stringIcNS_11char_traitsIcEENS2_IcEEEElEEPvEEEEEELi1ELb0EE5__getB8ue170006Ev, symObjAddr: 0x16164, symBinAddr: 0x100018518, symSize: 0xAC }
  - { offsetInCU: 0x244C7, offset: 0x244C7, size: 0x8, addend: 0x0, symName: __ZNSt3__117__compressed_pairImNS_22__unordered_map_hasherINS_12basic_stringIcNS_11char_traitsIcEENS_9allocatorIcEEEENS_17__hash_value_typeIS7_lEENS_4hashIS7_EENS_8equal_toIS7_EELb1EEEE5firstB8ue170006Ev, symObjAddr: 0x16210, symBinAddr: 0x1000185C4, symSize: 0x124 }
  - { offsetInCU: 0x244ED, offset: 0x244ED, size: 0x8, addend: 0x0, symName: __ZNSt3__122__compressed_pair_elemImLi0ELb0EE5__getB8ue170006Ev, symObjAddr: 0x16334, symBinAddr: 0x1000186E8, symSize: 0xAC }
  - { offsetInCU: 0x24513, offset: 0x24513, size: 0x8, addend: 0x0, symName: __ZNSt3__117__compressed_pairIfNS_21__unordered_map_equalINS_12basic_stringIcNS_11char_traitsIcEENS_9allocatorIcEEEENS_17__hash_value_typeIS7_lEENS_8equal_toIS7_EENS_4hashIS7_EELb1EEEE5firstB8ue170006Ev, symObjAddr: 0x163E0, symBinAddr: 0x100018794, symSize: 0x124 }
  - { offsetInCU: 0x24539, offset: 0x24539, size: 0x8, addend: 0x0, symName: __ZNSt3__122__compressed_pair_elemIfLi0ELb0EE5__getB8ue170006Ev, symObjAddr: 0x16504, symBinAddr: 0x1000188B8, symSize: 0xAC }
  - { offsetInCU: 0x2455F, offset: 0x2455F, size: 0x8, addend: 0x0, symName: __ZNSt3__112__hash_tableINS_17__hash_value_typeINS_12basic_stringIcNS_11char_traitsIcEENS_9allocatorIcEEEElEENS_22__unordered_map_hasherIS7_S8_NS_4hashIS7_EENS_8equal_toIS7_EELb1EEENS_21__unordered_map_equalIS7_S8_SD_SB_Lb1EEENS5_IS8_EEE8__rehashILb1EEEvm, symObjAddr: 0x165B0, symBinAddr: 0x100018964, symSize: 0x9CC }
  - { offsetInCU: 0x245B5, offset: 0x245B5, size: 0x8, addend: 0x0, symName: __ZNSt3__112__hash_tableINS_17__hash_value_typeINS_12basic_stringIcNS_11char_traitsIcEENS_9allocatorIcEEEElEENS_22__unordered_map_hasherIS7_S8_NS_4hashIS7_EENS_8equal_toIS7_EELb1EEENS_21__unordered_map_equalIS7_S8_SD_SB_Lb1EEENS5_IS8_EEE11__do_rehashILb1EEEvm, symObjAddr: 0x16F7C, symBinAddr: 0x100019330, symSize: 0x1084 }
  - { offsetInCU: 0x2469E, offset: 0x2469E, size: 0x8, addend: 0x0, symName: __ZNSt3__110unique_ptrIA_PNS_16__hash_node_baseIPNS_11__hash_nodeINS_17__hash_value_typeINS_12basic_stringIcNS_11char_traitsIcEENS_9allocatorIcEEEElEEPvEEEENS_25__bucket_list_deallocatorINS7_ISF_EEEEE11get_deleterB8ue170006Ev, symObjAddr: 0x180CC, symBinAddr: 0x10001A480, symSize: 0xF8 }
  - { offsetInCU: 0x246C4, offset: 0x246C4, size: 0x8, addend: 0x0, symName: __ZNSt3__125__bucket_list_deallocatorINS_9allocatorIPNS_16__hash_node_baseIPNS_11__hash_nodeINS_17__hash_value_typeINS_12basic_stringIcNS_11char_traitsIcEENS1_IcEEEElEEPvEEEEEEE7__allocB8ue170006Ev, symObjAddr: 0x181C4, symBinAddr: 0x10001A578, symSize: 0xDC }
  - { offsetInCU: 0x246EA, offset: 0x246EA, size: 0x8, addend: 0x0, symName: __ZNSt3__110unique_ptrIA_PNS_16__hash_node_baseIPNS_11__hash_nodeINS_17__hash_value_typeINS_12basic_stringIcNS_11char_traitsIcEENS_9allocatorIcEEEElEEPvEEEENS_25__bucket_list_deallocatorINS7_ISF_EEEEE5resetB8ue170006IPSF_EENS_9enable_ifIXsr28_CheckArrayPointerConversionIT_EE5valueEvE4typeESO_, symObjAddr: 0x182A0, symBinAddr: 0x10001A654, symSize: 0x2CC }
  - { offsetInCU: 0x24737, offset: 0x24737, size: 0x8, addend: 0x0, symName: __ZNSt3__116allocator_traitsINS_9allocatorIPNS_16__hash_node_baseIPNS_11__hash_nodeINS_17__hash_value_typeINS_12basic_stringIcNS_11char_traitsIcEENS1_IcEEEElEEPvEEEEEEE8allocateB8ue170006ERSG_m, symObjAddr: 0x1856C, symBinAddr: 0x10001A920, symSize: 0x2C }
  - { offsetInCU: 0x2476A, offset: 0x2476A, size: 0x8, addend: 0x0, symName: __ZNSt3__125__bucket_list_deallocatorINS_9allocatorIPNS_16__hash_node_baseIPNS_11__hash_nodeINS_17__hash_value_typeINS_12basic_stringIcNS_11char_traitsIcEENS1_IcEEEElEEPvEEEEEEE4sizeB8ue170006Ev, symObjAddr: 0x18598, symBinAddr: 0x10001A94C, symSize: 0xF8 }
  - { offsetInCU: 0x24790, offset: 0x24790, size: 0x8, addend: 0x0, symName: __ZNSt3__117__compressed_pairIPPNS_16__hash_node_baseIPNS_11__hash_nodeINS_17__hash_value_typeINS_12basic_stringIcNS_11char_traitsIcEENS_9allocatorIcEEEElEEPvEEEENS_25__bucket_list_deallocatorINS7_ISF_EEEEE6secondB8ue170006Ev, symObjAddr: 0x18690, symBinAddr: 0x10001AA44, symSize: 0x12C }
  - { offsetInCU: 0x247B6, offset: 0x247B6, size: 0x8, addend: 0x0, symName: __ZNSt3__122__compressed_pair_elemINS_25__bucket_list_deallocatorINS_9allocatorIPNS_16__hash_node_baseIPNS_11__hash_nodeINS_17__hash_value_typeINS_12basic_stringIcNS_11char_traitsIcEENS2_IcEEEElEEPvEEEEEEEELi1ELb0EE5__getB8ue170006Ev, symObjAddr: 0x187BC, symBinAddr: 0x10001AB70, symSize: 0xAC }
  - { offsetInCU: 0x247DC, offset: 0x247DC, size: 0x8, addend: 0x0, symName: __ZNSt3__117__compressed_pairImNS_9allocatorIPNS_16__hash_node_baseIPNS_11__hash_nodeINS_17__hash_value_typeINS_12basic_stringIcNS_11char_traitsIcEENS1_IcEEEElEEPvEEEEEEE6secondB8ue170006Ev, symObjAddr: 0x18868, symBinAddr: 0x10001AC1C, symSize: 0x108 }
  - { offsetInCU: 0x24802, offset: 0x24802, size: 0x8, addend: 0x0, symName: __ZNSt3__122__compressed_pair_elemINS_9allocatorIPNS_16__hash_node_baseIPNS_11__hash_nodeINS_17__hash_value_typeINS_12basic_stringIcNS_11char_traitsIcEENS1_IcEEEElEEPvEEEEEELi1ELb1EE5__getB8ue170006Ev, symObjAddr: 0x18970, symBinAddr: 0x10001AD24, symSize: 0x74 }
  - { offsetInCU: 0x24828, offset: 0x24828, size: 0x8, addend: 0x0, symName: __ZNSt3__117__compressed_pairIPPNS_16__hash_node_baseIPNS_11__hash_nodeINS_17__hash_value_typeINS_12basic_stringIcNS_11char_traitsIcEENS_9allocatorIcEEEElEEPvEEEENS_25__bucket_list_deallocatorINS7_ISF_EEEEE5firstB8ue170006Ev, symObjAddr: 0x189E4, symBinAddr: 0x10001AD98, symSize: 0x124 }
  - { offsetInCU: 0x2484E, offset: 0x2484E, size: 0x8, addend: 0x0, symName: __ZNSt3__125__bucket_list_deallocatorINS_9allocatorIPNS_16__hash_node_baseIPNS_11__hash_nodeINS_17__hash_value_typeINS_12basic_stringIcNS_11char_traitsIcEENS1_IcEEEElEEPvEEEEEEEclB8ue170006EPSF_, symObjAddr: 0x18B08, symBinAddr: 0x10001AEBC, symSize: 0x140 }
  - { offsetInCU: 0x24883, offset: 0x24883, size: 0x8, addend: 0x0, symName: __ZNSt3__122__compressed_pair_elemIPPNS_16__hash_node_baseIPNS_11__hash_nodeINS_17__hash_value_typeINS_12basic_stringIcNS_11char_traitsIcEENS_9allocatorIcEEEElEEPvEEEELi0ELb0EE5__getB8ue170006Ev, symObjAddr: 0x18C48, symBinAddr: 0x10001AFFC, symSize: 0xAC }
  - { offsetInCU: 0x248A9, offset: 0x248A9, size: 0x8, addend: 0x0, symName: __ZNSt3__116allocator_traitsINS_9allocatorIPNS_16__hash_node_baseIPNS_11__hash_nodeINS_17__hash_value_typeINS_12basic_stringIcNS_11char_traitsIcEENS1_IcEEEElEEPvEEEEEEE10deallocateB8ue170006ERSG_PSF_m, symObjAddr: 0x18CF4, symBinAddr: 0x10001B0A8, symSize: 0x34 }
  - { offsetInCU: 0x248EB, offset: 0x248EB, size: 0x8, addend: 0x0, symName: __ZNSt3__19allocatorIPNS_16__hash_node_baseIPNS_11__hash_nodeINS_17__hash_value_typeINS_12basic_stringIcNS_11char_traitsIcEENS0_IcEEEElEEPvEEEEE10deallocateB8ue170006EPSE_m, symObjAddr: 0x18D28, symBinAddr: 0x10001B0DC, symSize: 0x78 }
  - { offsetInCU: 0x2492D, offset: 0x2492D, size: 0x8, addend: 0x0, symName: __ZNSt3__19allocatorIPNS_16__hash_node_baseIPNS_11__hash_nodeINS_17__hash_value_typeINS_12basic_stringIcNS_11char_traitsIcEENS0_IcEEEElEEPvEEEEE8allocateB8ue170006Em, symObjAddr: 0x18EA8, symBinAddr: 0x10001B25C, symSize: 0xCC }
  - { offsetInCU: 0x2496C, offset: 0x2496C, size: 0x8, addend: 0x0, symName: __ZNSt3__116allocator_traitsINS_9allocatorIPNS_16__hash_node_baseIPNS_11__hash_nodeINS_17__hash_value_typeINS_12basic_stringIcNS_11char_traitsIcEENS1_IcEEEElEEPvEEEEEEE8max_sizeB8ue170006ISG_vvEEmRKSG_, symObjAddr: 0x18F74, symBinAddr: 0x10001B328, symSize: 0x54 }
  - { offsetInCU: 0x24998, offset: 0x24998, size: 0x8, addend: 0x0, symName: __ZNSt3__117__compressed_pairImNS_9allocatorIPNS_16__hash_node_baseIPNS_11__hash_nodeINS_17__hash_value_typeINS_12basic_stringIcNS_11char_traitsIcEENS1_IcEEEElEEPvEEEEEEE5firstB8ue170006Ev, symObjAddr: 0x18FC8, symBinAddr: 0x10001B37C, symSize: 0x124 }
  - { offsetInCU: 0x249BE, offset: 0x249BE, size: 0x8, addend: 0x0, symName: __ZNSt3__122__compressed_pair_elemINS_16__hash_node_baseIPNS_11__hash_nodeINS_17__hash_value_typeINS_12basic_stringIcNS_11char_traitsIcEENS_9allocatorIcEEEElEEPvEEEELi0ELb0EE5__getB8ue170006Ev, symObjAddr: 0x193C8, symBinAddr: 0x10001B77C, symSize: 0xAC }
  - { offsetInCU: 0x249E4, offset: 0x249E4, size: 0x8, addend: 0x0, symName: __ZNKSt3__117__compressed_pairIPNS_11__hash_nodeINS_17__hash_value_typeINS_12basic_stringIcNS_11char_traitsIcEENS_9allocatorIcEEEElEEPvEENS_22__hash_node_destructorINS6_ISB_EEEEE5firstB8ue170006Ev, symObjAddr: 0x19474, symBinAddr: 0x10001B828, symSize: 0x124 }
  - { offsetInCU: 0x24A0A, offset: 0x24A0A, size: 0x8, addend: 0x0, symName: __ZNKSt3__122__compressed_pair_elemIPNS_11__hash_nodeINS_17__hash_value_typeINS_12basic_stringIcNS_11char_traitsIcEENS_9allocatorIcEEEElEEPvEELi0ELb0EE5__getB8ue170006Ev, symObjAddr: 0x19598, symBinAddr: 0x10001B94C, symSize: 0xAC }
  - { offsetInCU: 0x24A30, offset: 0x24A30, size: 0x8, addend: 0x0, symName: __ZNSt3__117__compressed_pairIPNS_11__hash_nodeINS_17__hash_value_typeINS_12basic_stringIcNS_11char_traitsIcEENS_9allocatorIcEEEElEEPvEENS_22__hash_node_destructorINS6_ISB_EEEEE5firstB8ue170006Ev, symObjAddr: 0x19644, symBinAddr: 0x10001B9F8, symSize: 0x124 }
  - { offsetInCU: 0x24A56, offset: 0x24A56, size: 0x8, addend: 0x0, symName: __ZNSt3__122__compressed_pair_elemIPNS_11__hash_nodeINS_17__hash_value_typeINS_12basic_stringIcNS_11char_traitsIcEENS_9allocatorIcEEEElEEPvEELi0ELb0EE5__getB8ue170006Ev, symObjAddr: 0x19768, symBinAddr: 0x10001BB1C, symSize: 0xAC }
  - { offsetInCU: 0x24A7C, offset: 0x24A7C, size: 0x8, addend: 0x0, symName: __ZNSt3__110unique_ptrINS_11__hash_nodeINS_17__hash_value_typeINS_12basic_stringIcNS_11char_traitsIcEENS_9allocatorIcEEEElEEPvEENS_22__hash_node_destructorINS6_ISB_EEEEED2B8ue170006Ev, symObjAddr: 0x19814, symBinAddr: 0x10001BBC8, symSize: 0x7C }
  - { offsetInCU: 0x24AA6, offset: 0x24AA6, size: 0x8, addend: 0x0, symName: __ZNSt3__110unique_ptrINS_11__hash_nodeINS_17__hash_value_typeINS_12basic_stringIcNS_11char_traitsIcEENS_9allocatorIcEEEElEEPvEENS_22__hash_node_destructorINS6_ISB_EEEEE5resetB8ue170006EPSB_, symObjAddr: 0x19890, symBinAddr: 0x10001BC44, symSize: 0x2CC }
  - { offsetInCU: 0x24AEA, offset: 0x24AEA, size: 0x8, addend: 0x0, symName: __ZNSt3__122__hash_node_destructorINS_9allocatorINS_11__hash_nodeINS_17__hash_value_typeINS_12basic_stringIcNS_11char_traitsIcEENS1_IcEEEElEEPvEEEEEclB8ue170006EPSB_, symObjAddr: 0x19B5C, symBinAddr: 0x10001BF10, symSize: 0x2C0 }
  - { offsetInCU: 0x24B1F, offset: 0x24B1F, size: 0x8, addend: 0x0, symName: __ZNSt3__116allocator_traitsINS_9allocatorINS_11__hash_nodeINS_17__hash_value_typeINS_12basic_stringIcNS_11char_traitsIcEENS1_IcEEEElEEPvEEEEE7destroyB8ue170006INS_4pairIKS8_lEEvvEEvRSC_PT_, symObjAddr: 0x19E1C, symBinAddr: 0x10001C1D0, symSize: 0x28 }
  - { offsetInCU: 0x24B5A, offset: 0x24B5A, size: 0x8, addend: 0x0, symName: __ZNSt3__116allocator_traitsINS_9allocatorINS_11__hash_nodeINS_17__hash_value_typeINS_12basic_stringIcNS_11char_traitsIcEENS1_IcEEEElEEPvEEEEE10deallocateB8ue170006ERSC_PSB_m, symObjAddr: 0x19E44, symBinAddr: 0x10001C1F8, symSize: 0x34 }
  - { offsetInCU: 0x24B9C, offset: 0x24B9C, size: 0x8, addend: 0x0, symName: __ZNSt3__14pairIKNS_12basic_stringIcNS_11char_traitsIcEENS_9allocatorIcEEEElED1Ev, symObjAddr: 0x19F08, symBinAddr: 0x10001C2BC, symSize: 0x78 }
  - { offsetInCU: 0x24BC8, offset: 0x24BC8, size: 0x8, addend: 0x0, symName: __ZNSt3__14pairIKNS_12basic_stringIcNS_11char_traitsIcEENS_9allocatorIcEEEElED2Ev, symObjAddr: 0x19F80, symBinAddr: 0x10001C334, symSize: 0x78 }
  - { offsetInCU: 0x24BF4, offset: 0x24BF4, size: 0x8, addend: 0x0, symName: __ZNSt3__19allocatorINS_11__hash_nodeINS_17__hash_value_typeINS_12basic_stringIcNS_11char_traitsIcEENS0_IcEEEElEEPvEEE10deallocateB8ue170006EPSA_m, symObjAddr: 0x19FF8, symBinAddr: 0x10001C3AC, symSize: 0x7C }
  - { offsetInCU: 0x24C36, offset: 0x24C36, size: 0x8, addend: 0x0, symName: __ZNSt3__115__hash_iteratorIPNS_11__hash_nodeINS_17__hash_value_typeINS_12basic_stringIcNS_11char_traitsIcEENS_9allocatorIcEEEElEEPvEEEC2B8ue170006EPNS_16__hash_node_baseISC_EE, symObjAddr: 0x1A074, symBinAddr: 0x10001C428, symSize: 0xC8 }
  - { offsetInCU: 0x24C6F, offset: 0x24C6F, size: 0x8, addend: 0x0, symName: __ZNSt3__14pairINS_15__hash_iteratorIPNS_11__hash_nodeINS_17__hash_value_typeINS_12basic_stringIcNS_11char_traitsIcEENS_9allocatorIcEEEElEEPvEEEEbEC2B8ue170006ISE_RbLSB_0EEEOT_OT0_, symObjAddr: 0x1A13C, symBinAddr: 0x10001C4F0, symSize: 0x1C8 }
  - { offsetInCU: 0x24CCD, offset: 0x24CCD, size: 0x8, addend: 0x0, symName: __ZNSt3__15tupleIJONS_12basic_stringIcNS_11char_traitsIcEENS_9allocatorIcEEEEEEC1B8ue170006IJS6_ELi0EEEDpOT_, symObjAddr: 0x1A304, symBinAddr: 0x10001C6B8, symSize: 0x80 }
  - { offsetInCU: 0x24D17, offset: 0x24D17, size: 0x8, addend: 0x0, symName: __ZNSt3__15tupleIJONS_12basic_stringIcNS_11char_traitsIcEENS_9allocatorIcEEEEEEC2B8ue170006IJS6_ELi0EEEDpOT_, symObjAddr: 0x1A384, symBinAddr: 0x10001C738, symSize: 0xC8 }
  - { offsetInCU: 0x24D61, offset: 0x24D61, size: 0x8, addend: 0x0, symName: __ZNSt3__112__tuple_implINS_15__tuple_indicesIJLm0EEEEJONS_12basic_stringIcNS_11char_traitsIcEENS_9allocatorIcEEEEEEC1B8ue170006IJLm0EEJS9_EJEJEJS8_EEENS1_IJXspT_EEEENS_13__tuple_typesIJDpT0_EEENS1_IJXspT1_EEEENSD_IJDpT2_EEEDpOT3_, symObjAddr: 0x1A44C, symBinAddr: 0x10001C800, symSize: 0x80 }
  - { offsetInCU: 0x24DF6, offset: 0x24DF6, size: 0x8, addend: 0x0, symName: __ZNSt3__112__tuple_implINS_15__tuple_indicesIJLm0EEEEJONS_12basic_stringIcNS_11char_traitsIcEENS_9allocatorIcEEEEEEC2B8ue170006IJLm0EEJS9_EJEJEJS8_EEENS1_IJXspT_EEEENS_13__tuple_typesIJDpT0_EEENS1_IJXspT1_EEEENSD_IJDpT2_EEEDpOT3_, symObjAddr: 0x1A4CC, symBinAddr: 0x10001C880, symSize: 0x10C }
  - { offsetInCU: 0x24E8B, offset: 0x24E8B, size: 0x8, addend: 0x0, symName: __ZNSt3__112__tuple_leafILm0EONS_12basic_stringIcNS_11char_traitsIcEENS_9allocatorIcEEEELb0EEC2B8ue170006IS6_vEEOT_, symObjAddr: 0x1A5D8, symBinAddr: 0x10001C98C, symSize: 0x108 }
  - { offsetInCU: 0x24ECE, offset: 0x24ECE, size: 0x8, addend: 0x0, symName: __ZNSt3__114pointer_traitsIPNS_17__hash_value_typeINS_12basic_stringIcNS_11char_traitsIcEENS_9allocatorIcEEEElEEE10pointer_toB8ue170006ERS8_, symObjAddr: 0x1A6E0, symBinAddr: 0x10001CA94, symSize: 0x14 }
  - { offsetInCU: 0x24EF1, offset: 0x24EF1, size: 0x8, addend: 0x0, symName: __ZNSt3__112basic_stringIcNS_11char_traitsIcEENS_9allocatorIcEEEC2B8ue170006ILi0EEEPKc, symObjAddr: 0x1A72C, symBinAddr: 0x10001CAE0, symSize: 0x278 }
  - { offsetInCU: 0x24F32, offset: 0x24F32, size: 0x8, addend: 0x0, symName: __ZNSt3__117__compressed_pairINS_12basic_stringIcNS_11char_traitsIcEENS_9allocatorIcEEE5__repES5_EC1B8ue170006INS_18__default_init_tagESA_EEOT_OT0_, symObjAddr: 0x1A9A4, symBinAddr: 0x10001CD58, symSize: 0x88 }
  - { offsetInCU: 0x24F8A, offset: 0x24F8A, size: 0x8, addend: 0x0, symName: __ZNSt3__117__compressed_pairINS_12basic_stringIcNS_11char_traitsIcEENS_9allocatorIcEEE5__repES5_EC2B8ue170006INS_18__default_init_tagESA_EEOT_OT0_, symObjAddr: 0x1AA2C, symBinAddr: 0x10001CDE0, symSize: 0xF4 }
  - { offsetInCU: 0x24FE2, offset: 0x24FE2, size: 0x8, addend: 0x0, symName: __ZNSt3__122__compressed_pair_elemINS_12basic_stringIcNS_11char_traitsIcEENS_9allocatorIcEEE5__repELi0ELb0EEC2B8ue170006ENS_18__default_init_tagE, symObjAddr: 0x1AB20, symBinAddr: 0x10001CED4, symSize: 0x6C }
  - { offsetInCU: 0x25017, offset: 0x25017, size: 0x8, addend: 0x0, symName: __ZNSt3__122__compressed_pair_elemINS_9allocatorIcEELi1ELb1EEC2B8ue170006ENS_18__default_init_tagE, symObjAddr: 0x1AB8C, symBinAddr: 0x10001CF40, symSize: 0x84 }
  - { offsetInCU: 0x2504C, offset: 0x2504C, size: 0x8, addend: 0x0, symName: __ZNSt3__19allocatorIcEC2B8ue170006Ev, symObjAddr: 0x1AC10, symBinAddr: 0x10001CFC4, symSize: 0x84 }
  - { offsetInCU: 0x25076, offset: 0x25076, size: 0x8, addend: 0x0, symName: __ZNSt3__116__non_trivial_ifILb1ENS_9allocatorIcEEEC2B8ue170006Ev, symObjAddr: 0x1AC94, symBinAddr: 0x10001D048, symSize: 0x54 }
  - { offsetInCU: 0x250A0, offset: 0x250A0, size: 0x8, addend: 0x0, symName: __ZNSt3__113unordered_mapINS_12basic_stringIcNS_11char_traitsIcEENS_9allocatorIcEEEElNS_4hashIS6_EENS_8equal_toIS6_EENS4_INS_4pairIKS6_lEEEEED2B8ue170006Ev, symObjAddr: 0x1ACE8, symBinAddr: 0x10001D09C, symSize: 0x78 }
  - { offsetInCU: 0x250CA, offset: 0x250CA, size: 0x8, addend: 0x0, symName: __ZNSt3__112__hash_tableINS_17__hash_value_typeINS_12basic_stringIcNS_11char_traitsIcEENS_9allocatorIcEEEElEENS_22__unordered_map_hasherIS7_S8_NS_4hashIS7_EENS_8equal_toIS7_EELb1EEENS_21__unordered_map_equalIS7_S8_SD_SB_Lb1EEENS5_IS8_EEED1Ev, symObjAddr: 0x1AD60, symBinAddr: 0x10001D114, symSize: 0x78 }
  - { offsetInCU: 0x250F6, offset: 0x250F6, size: 0x8, addend: 0x0, symName: __ZNSt3__112__hash_tableINS_17__hash_value_typeINS_12basic_stringIcNS_11char_traitsIcEENS_9allocatorIcEEEElEENS_22__unordered_map_hasherIS7_S8_NS_4hashIS7_EENS_8equal_toIS7_EELb1EEENS_21__unordered_map_equalIS7_S8_SD_SB_Lb1EEENS5_IS8_EEED2Ev, symObjAddr: 0x1ADD8, symBinAddr: 0x10001D18C, symSize: 0x1A4 }
  - { offsetInCU: 0x25122, offset: 0x25122, size: 0x8, addend: 0x0, symName: __ZNSt3__112__hash_tableINS_17__hash_value_typeINS_12basic_stringIcNS_11char_traitsIcEENS_9allocatorIcEEEElEENS_22__unordered_map_hasherIS7_S8_NS_4hashIS7_EENS_8equal_toIS7_EELb1EEENS_21__unordered_map_equalIS7_S8_SD_SB_Lb1EEENS5_IS8_EEE17__deallocate_nodeEPNS_16__hash_node_baseIPNS_11__hash_nodeIS8_PvEEEE, symObjAddr: 0x1AF7C, symBinAddr: 0x10001D330, symSize: 0x31C }
  - { offsetInCU: 0x2518C, offset: 0x2518C, size: 0x8, addend: 0x0, symName: __ZNSt3__110unique_ptrIA_PNS_16__hash_node_baseIPNS_11__hash_nodeINS_17__hash_value_typeINS_12basic_stringIcNS_11char_traitsIcEENS_9allocatorIcEEEElEEPvEEEENS_25__bucket_list_deallocatorINS7_ISF_EEEEED1B8ue170006Ev, symObjAddr: 0x1B298, symBinAddr: 0x10001D64C, symSize: 0x78 }
  - { offsetInCU: 0x251B6, offset: 0x251B6, size: 0x8, addend: 0x0, symName: __ZNSt3__110unique_ptrIA_PNS_16__hash_node_baseIPNS_11__hash_nodeINS_17__hash_value_typeINS_12basic_stringIcNS_11char_traitsIcEENS_9allocatorIcEEEElEEPvEEEENS_25__bucket_list_deallocatorINS7_ISF_EEEEED2B8ue170006Ev, symObjAddr: 0x1B310, symBinAddr: 0x10001D6C4, symSize: 0x7C }
  - { offsetInCU: 0x251E0, offset: 0x251E0, size: 0x8, addend: 0x0, symName: __ZNSt3__110unique_ptrIA_PNS_16__hash_node_baseIPNS_11__hash_nodeINS_17__hash_value_typeINS_12basic_stringIcNS_11char_traitsIcEENS_9allocatorIcEEEElEEPvEEEENS_25__bucket_list_deallocatorINS7_ISF_EEEEE5resetB8ue170006EDn, symObjAddr: 0x1B38C, symBinAddr: 0x10001D740, symSize: 0x2C0 }
  - { offsetInCU: 0x25221, offset: 0x25221, size: 0x8, addend: 0x0, symName: __ZNSt3__110unique_ptrIN3ppc6detail20PerfCountersFallbackENS_14default_deleteIS3_EEEC2B8ue170006ILb1EvEEPS3_, symObjAddr: 0x1B64C, symBinAddr: 0x10001DA00, symSize: 0x2B8 }
  - { offsetInCU: 0x25269, offset: 0x25269, size: 0x8, addend: 0x0, symName: __ZNSt3__117__compressed_pairIPN3ppc6detail20PerfCountersFallbackENS_14default_deleteIS3_EEEC1B8ue170006IRS4_NS_16__value_init_tagEEEOT_OT0_, symObjAddr: 0x1B904, symBinAddr: 0x10001DCB8, symSize: 0x88 }
  - { offsetInCU: 0x252C1, offset: 0x252C1, size: 0x8, addend: 0x0, symName: __ZNSt3__117__compressed_pairIPN3ppc6detail20PerfCountersFallbackENS_14default_deleteIS3_EEEC2B8ue170006IRS4_NS_16__value_init_tagEEEOT_OT0_, symObjAddr: 0x1B98C, symBinAddr: 0x10001DD40, symSize: 0x140 }
  - { offsetInCU: 0x25319, offset: 0x25319, size: 0x8, addend: 0x0, symName: __ZNSt3__122__compressed_pair_elemIPN3ppc6detail20PerfCountersFallbackELi0ELb0EEC2B8ue170006IRS4_vEEOT_, symObjAddr: 0x1BACC, symBinAddr: 0x10001DE80, symSize: 0x144 }
  - { offsetInCU: 0x2535B, offset: 0x2535B, size: 0x8, addend: 0x0, symName: __ZNSt3__122__compressed_pair_elemINS_14default_deleteIN3ppc6detail20PerfCountersFallbackEEELi1ELb1EEC2B8ue170006ENS_16__value_init_tagE, symObjAddr: 0x1BC10, symBinAddr: 0x10001DFC4, symSize: 0x54 }
  - { offsetInCU: 0x25390, offset: 0x25390, size: 0x8, addend: 0x0, symName: __ZNSt3__110unique_ptrIN3ppc9StopwatchENS_14default_deleteIS2_EEEC2B8ue170006INS1_6detail20PerfCountersFallbackENS3_IS8_EEvvEEONS0_IT_T0_EE, symObjAddr: 0x1BC64, symBinAddr: 0x10001E018, symSize: 0x320 }
  - { offsetInCU: 0x253DE, offset: 0x253DE, size: 0x8, addend: 0x0, symName: __ZNSt3__110unique_ptrIN3ppc6detail20PerfCountersFallbackENS_14default_deleteIS3_EEE7releaseB8ue170006Ev, symObjAddr: 0x1BF84, symBinAddr: 0x10001E338, symSize: 0x20C }
  - { offsetInCU: 0x25413, offset: 0x25413, size: 0x8, addend: 0x0, symName: __ZNSt3__110unique_ptrIN3ppc6detail20PerfCountersFallbackENS_14default_deleteIS3_EEE11get_deleterB8ue170006Ev, symObjAddr: 0x1C190, symBinAddr: 0x10001E544, symSize: 0xDC }
  - { offsetInCU: 0x25445, offset: 0x25445, size: 0x8, addend: 0x0, symName: __ZNSt3__117__compressed_pairIPN3ppc9StopwatchENS_14default_deleteIS2_EEEC1B8ue170006IPNS1_6detail20PerfCountersFallbackENS4_IS9_EEEEOT_OT0_, symObjAddr: 0x1C26C, symBinAddr: 0x10001E620, symSize: 0x88 }
  - { offsetInCU: 0x2549D, offset: 0x2549D, size: 0x8, addend: 0x0, symName: __ZNSt3__117__compressed_pairIPN3ppc6detail20PerfCountersFallbackENS_14default_deleteIS3_EEE5firstB8ue170006Ev, symObjAddr: 0x1C2F4, symBinAddr: 0x10001E6A8, symSize: 0x124 }
  - { offsetInCU: 0x254C3, offset: 0x254C3, size: 0x8, addend: 0x0, symName: __ZNSt3__122__compressed_pair_elemIPN3ppc6detail20PerfCountersFallbackELi0ELb0EE5__getB8ue170006Ev, symObjAddr: 0x1C418, symBinAddr: 0x10001E7CC, symSize: 0xAC }
  - { offsetInCU: 0x254E9, offset: 0x254E9, size: 0x8, addend: 0x0, symName: __ZNSt3__117__compressed_pairIPN3ppc6detail20PerfCountersFallbackENS_14default_deleteIS3_EEE6secondB8ue170006Ev, symObjAddr: 0x1C4C4, symBinAddr: 0x10001E878, symSize: 0x108 }
  - { offsetInCU: 0x2550F, offset: 0x2550F, size: 0x8, addend: 0x0, symName: __ZNSt3__122__compressed_pair_elemINS_14default_deleteIN3ppc6detail20PerfCountersFallbackEEELi1ELb1EE5__getB8ue170006Ev, symObjAddr: 0x1C5CC, symBinAddr: 0x10001E980, symSize: 0x74 }
  - { offsetInCU: 0x25535, offset: 0x25535, size: 0x8, addend: 0x0, symName: __ZNSt3__117__compressed_pairIPN3ppc9StopwatchENS_14default_deleteIS2_EEEC2B8ue170006IPNS1_6detail20PerfCountersFallbackENS4_IS9_EEEEOT_OT0_, symObjAddr: 0x1C640, symBinAddr: 0x10001E9F4, symSize: 0x170 }
  - { offsetInCU: 0x2558D, offset: 0x2558D, size: 0x8, addend: 0x0, symName: __ZNSt3__122__compressed_pair_elemIPN3ppc9StopwatchELi0ELb0EEC2B8ue170006IPNS1_6detail20PerfCountersFallbackEvEEOT_, symObjAddr: 0x1C7B0, symBinAddr: 0x10001EB64, symSize: 0x184 }
  - { offsetInCU: 0x255CF, offset: 0x255CF, size: 0x8, addend: 0x0, symName: __ZNSt3__122__compressed_pair_elemINS_14default_deleteIN3ppc9StopwatchEEELi1ELb1EEC2B8ue170006INS1_INS2_6detail20PerfCountersFallbackEEEvEEOT_, symObjAddr: 0x1C934, symBinAddr: 0x10001ECE8, symSize: 0xBC }
  - { offsetInCU: 0x25611, offset: 0x25611, size: 0x8, addend: 0x0, symName: __ZNSt3__114default_deleteIN3ppc9StopwatchEEC2B8ue170006INS1_6detail20PerfCountersFallbackEEERKNS0_IT_EEPNS_9enable_ifIXsr14is_convertibleIPS7_PS2_EE5valueEvE4typeE, symObjAddr: 0x1C9F0, symBinAddr: 0x10001EDA4, symSize: 0x5C }
  - { offsetInCU: 0x2565A, offset: 0x2565A, size: 0x8, addend: 0x0, symName: __ZNSt3__110unique_ptrIN3ppc6detail20PerfCountersFallbackENS_14default_deleteIS3_EEED2B8ue170006Ev, symObjAddr: 0x1CA4C, symBinAddr: 0x10001EE00, symSize: 0x7C }
  - { offsetInCU: 0x25684, offset: 0x25684, size: 0x8, addend: 0x0, symName: __ZNSt3__110unique_ptrIN3ppc6detail20PerfCountersFallbackENS_14default_deleteIS3_EEE5resetB8ue170006EPS3_, symObjAddr: 0x1CAC8, symBinAddr: 0x10001EE7C, symSize: 0x2B0 }
  - { offsetInCU: 0x256C8, offset: 0x256C8, size: 0x8, addend: 0x0, symName: __ZNKSt3__114default_deleteIN3ppc6detail20PerfCountersFallbackEEclB8ue170006EPS3_, symObjAddr: 0x1CD78, symBinAddr: 0x10001F12C, symSize: 0x1DC }
  - { offsetInCU: 0x256FC, offset: 0x256FC, size: 0x8, addend: 0x0, symName: __ZNSt3__110unique_ptrIN3ppc9fdostreamENS_14default_deleteIS2_EEED1B8ue170006Ev, symObjAddr: 0x1CF54, symBinAddr: 0x10001F308, symSize: 0x78 }
  - { offsetInCU: 0x25726, offset: 0x25726, size: 0x8, addend: 0x0, symName: __ZNSt3__110unique_ptrIN3ppc9fdostreamENS_14default_deleteIS2_EEED2B8ue170006Ev, symObjAddr: 0x1CFCC, symBinAddr: 0x10001F380, symSize: 0x7C }
  - { offsetInCU: 0x25750, offset: 0x25750, size: 0x8, addend: 0x0, symName: __ZNSt3__110unique_ptrIN3ppc9fdostreamENS_14default_deleteIS2_EEE5resetB8ue170006EPS2_, symObjAddr: 0x1D048, symBinAddr: 0x10001F3FC, symSize: 0x2B0 }
  - { offsetInCU: 0x25794, offset: 0x25794, size: 0x8, addend: 0x0, symName: __ZNSt3__117__compressed_pairIPN3ppc9fdostreamENS_14default_deleteIS2_EEE5firstB8ue170006Ev, symObjAddr: 0x1D2F8, symBinAddr: 0x10001F6AC, symSize: 0x124 }
  - { offsetInCU: 0x257BA, offset: 0x257BA, size: 0x8, addend: 0x0, symName: __ZNSt3__117__compressed_pairIPN3ppc9fdostreamENS_14default_deleteIS2_EEE6secondB8ue170006Ev, symObjAddr: 0x1D41C, symBinAddr: 0x10001F7D0, symSize: 0x108 }
  - { offsetInCU: 0x257E0, offset: 0x257E0, size: 0x8, addend: 0x0, symName: __ZNKSt3__114default_deleteIN3ppc9fdostreamEEclB8ue170006EPS2_, symObjAddr: 0x1D524, symBinAddr: 0x10001F8D8, symSize: 0x1DC }
  - { offsetInCU: 0x25814, offset: 0x25814, size: 0x8, addend: 0x0, symName: __ZNSt3__122__compressed_pair_elemIPN3ppc9fdostreamELi0ELb0EE5__getB8ue170006Ev, symObjAddr: 0x1D700, symBinAddr: 0x10001FAB4, symSize: 0xAC }
  - { offsetInCU: 0x2583A, offset: 0x2583A, size: 0x8, addend: 0x0, symName: __ZNSt3__122__compressed_pair_elemINS_14default_deleteIN3ppc9fdostreamEEELi1ELb1EE5__getB8ue170006Ev, symObjAddr: 0x1D7AC, symBinAddr: 0x10001FB60, symSize: 0x74 }
  - { offsetInCU: 0x25860, offset: 0x25860, size: 0x8, addend: 0x0, symName: _main, symObjAddr: 0x1D820, symBinAddr: 0x10001FBD4, symSize: 0x1308 }
  - { offsetInCU: 0x258FF, offset: 0x258FF, size: 0x8, addend: 0x0, symName: __ZN3ppc9fdostreamC1Ei, symObjAddr: 0x1EB28, symBinAddr: 0x100020EDC, symSize: 0x350 }
  - { offsetInCU: 0x2593C, offset: 0x2593C, size: 0x8, addend: 0x0, symName: __ZNSt3__110unique_ptrIN3ppc9fdostreamENS_14default_deleteIS2_EEEC1B8ue170006ILb1EvEEPS2_, symObjAddr: 0x1EE78, symBinAddr: 0x10002122C, symSize: 0x80 }
  - { offsetInCU: 0x2597F, offset: 0x2597F, size: 0x8, addend: 0x0, symName: __ZNSt3__110unique_ptrIN3ppc9fdostreamENS_14default_deleteIS2_EEEaSB8ue170006EOS5_, symObjAddr: 0x1EEF8, symBinAddr: 0x1000212AC, symSize: 0x170 }
  - { offsetInCU: 0x259B3, offset: 0x259B3, size: 0x8, addend: 0x0, symName: __ZNSt3__113basic_ostreamIcNS_11char_traitsIcEEElsB8ue170006EPFRS3_S4_E, symObjAddr: 0x1F138, symBinAddr: 0x1000214EC, symSize: 0x108 }
  - { offsetInCU: 0x25A88, offset: 0x25A88, size: 0x8, addend: 0x0, symName: __ZNSt3__114basic_ifstreamIcNS_11char_traitsIcEEEC1EPKcj, symObjAddr: 0x1F618, symBinAddr: 0x1000219CC, symSize: 0x6A4 }
  - { offsetInCU: 0x25AD2, offset: 0x25AD2, size: 0x8, addend: 0x0, symName: __ZNKSt3__19basic_iosIcNS_11char_traitsIcEEEntB8ue170006Ev, symObjAddr: 0x1FCBC, symBinAddr: 0x100022070, symSize: 0xF8 }
  - { offsetInCU: 0x25AF8, offset: 0x25AF8, size: 0x8, addend: 0x0, symName: __ZNSt3__112basic_stringIcNS_11char_traitsIcEENS_9allocatorIcEEEC1B8ue170006Ev, symObjAddr: 0x1FDB4, symBinAddr: 0x100022168, symSize: 0x78 }
  - { offsetInCU: 0x25B22, offset: 0x25B22, size: 0x8, addend: 0x0, symName: __ZNSt3__114numeric_limitsIlE3maxB8ue170006Ev, symObjAddr: 0x216B4, symBinAddr: 0x100023A68, symSize: 0x14 }
  - { offsetInCU: 0x25B36, offset: 0x25B36, size: 0x8, addend: 0x0, symName: __ZL4testbRKN12_GLOBAL__N_110ISTestCaseE, symObjAddr: 0x23940, symBinAddr: 0x100025CF4, symSize: 0x950 }
  - { offsetInCU: 0x25C52, offset: 0x25C52, size: 0x8, addend: 0x0, symName: __ZNKSt3__110unique_ptrIN12_GLOBAL__N_110ISTestCaseENS_14default_deleteIS2_EEEdeB8ue170006Ev, symObjAddr: 0x24290, symBinAddr: 0x100026644, symSize: 0x184 }
  - { offsetInCU: 0x25C78, offset: 0x25C78, size: 0x8, addend: 0x0, symName: __ZNSt3__110unique_ptrIN12_GLOBAL__N_110ISTestCaseENS_14default_deleteIS2_EEED1B8ue170006Ev, symObjAddr: 0x24414, symBinAddr: 0x1000267C8, symSize: 0x78 }
  - { offsetInCU: 0x25CA7, offset: 0x25CA7, size: 0x8, addend: 0x0, symName: __ZNSt3__114basic_ifstreamIcNS_11char_traitsIcEEED1Ev, symObjAddr: 0x2448C, symBinAddr: 0x100026840, symSize: 0x8C }
  - { offsetInCU: 0x25CD4, offset: 0x25CD4, size: 0x8, addend: 0x0, symName: __ZN3ppc9fdostreamC1ENSt3__110unique_ptrINS_12fdostreambufENS1_14default_deleteIS3_EEEE, symObjAddr: 0x246C0, symBinAddr: 0x100026A74, symSize: 0x2D8 }
  - { offsetInCU: 0x25D0D, offset: 0x25D0D, size: 0x8, addend: 0x0, symName: __ZNSt3__110unique_ptrIN3ppc12fdostreambufENS_14default_deleteIS2_EEED1B8ue170006Ev, symObjAddr: 0x24998, symBinAddr: 0x100026D4C, symSize: 0x78 }
  - { offsetInCU: 0x25D37, offset: 0x25D37, size: 0x8, addend: 0x0, symName: __ZN3ppc12fdostreambufC1Ei, symObjAddr: 0x24A10, symBinAddr: 0x100026DC4, symSize: 0x80 }
  - { offsetInCU: 0x25D6F, offset: 0x25D6F, size: 0x8, addend: 0x0, symName: __ZNSt3__110unique_ptrIN3ppc12fdostreambufENS_14default_deleteIS2_EEEC1B8ue170006ILb1EvEEPS2_, symObjAddr: 0x24A90, symBinAddr: 0x100026E44, symSize: 0x80 }
  - { offsetInCU: 0x25DB2, offset: 0x25DB2, size: 0x8, addend: 0x0, symName: __ZN3ppc12fdostreambufC2Ei, symObjAddr: 0x24B10, symBinAddr: 0x100026EC4, symSize: 0x220 }
  - { offsetInCU: 0x25DEA, offset: 0x25DEA, size: 0x8, addend: 0x0, symName: __ZN3ppc12fdostreambufD1Ev, symObjAddr: 0x24D30, symBinAddr: 0x1000270E4, symSize: 0x78 }
  - { offsetInCU: 0x25E14, offset: 0x25E14, size: 0x8, addend: 0x0, symName: __ZN3ppc12fdostreambufD0Ev, symObjAddr: 0x24DA8, symBinAddr: 0x10002715C, symSize: 0x74 }
  - { offsetInCU: 0x25E3E, offset: 0x25E3E, size: 0x8, addend: 0x0, symName: __ZN3ppc12fdostreambuf6xsputnEPKcl, symObjAddr: 0x24E1C, symBinAddr: 0x1000271D0, symSize: 0x160 }
  - { offsetInCU: 0x25E80, offset: 0x25E80, size: 0x8, addend: 0x0, symName: __ZN3ppc12fdostreambuf8overflowEi, symObjAddr: 0x24F7C, symBinAddr: 0x100027330, symSize: 0x3DC }
  - { offsetInCU: 0x25ECE, offset: 0x25ECE, size: 0x8, addend: 0x0, symName: __ZN3ppc12fdostreambufD2Ev, symObjAddr: 0x25358, symBinAddr: 0x10002770C, symSize: 0x254 }
  - { offsetInCU: 0x25EF8, offset: 0x25EF8, size: 0x8, addend: 0x0, symName: __ZNSt3__111char_traitsIcE11eq_int_typeB8ue170006Eii, symObjAddr: 0x255AC, symBinAddr: 0x100027960, symSize: 0x28 }
  - { offsetInCU: 0x25F2B, offset: 0x25F2B, size: 0x8, addend: 0x0, symName: __ZNSt3__111char_traitsIcE3eofB8ue170006Ev, symObjAddr: 0x255D4, symBinAddr: 0x100027988, symSize: 0x8 }
  - { offsetInCU: 0x25F3F, offset: 0x25F3F, size: 0x8, addend: 0x0, symName: __ZNSt3__110unique_ptrIN3ppc12fdostreambufENS_14default_deleteIS2_EEEC2B8ue170006ILb1EvEEPS2_, symObjAddr: 0x255DC, symBinAddr: 0x100027990, symSize: 0x2B8 }
  - { offsetInCU: 0x25F87, offset: 0x25F87, size: 0x8, addend: 0x0, symName: __ZNSt3__117__compressed_pairIPN3ppc12fdostreambufENS_14default_deleteIS2_EEEC1B8ue170006IRS3_NS_16__value_init_tagEEEOT_OT0_, symObjAddr: 0x25894, symBinAddr: 0x100027C48, symSize: 0x88 }
  - { offsetInCU: 0x25FDF, offset: 0x25FDF, size: 0x8, addend: 0x0, symName: __ZNSt3__117__compressed_pairIPN3ppc12fdostreambufENS_14default_deleteIS2_EEEC2B8ue170006IRS3_NS_16__value_init_tagEEEOT_OT0_, symObjAddr: 0x2591C, symBinAddr: 0x100027CD0, symSize: 0x140 }
  - { offsetInCU: 0x26037, offset: 0x26037, size: 0x8, addend: 0x0, symName: __ZNSt3__122__compressed_pair_elemIPN3ppc12fdostreambufELi0ELb0EEC2B8ue170006IRS3_vEEOT_, symObjAddr: 0x25A5C, symBinAddr: 0x100027E10, symSize: 0x144 }
  - { offsetInCU: 0x26079, offset: 0x26079, size: 0x8, addend: 0x0, symName: __ZNSt3__122__compressed_pair_elemINS_14default_deleteIN3ppc12fdostreambufEEELi1ELb1EEC2B8ue170006ENS_16__value_init_tagE, symObjAddr: 0x25BA0, symBinAddr: 0x100027F54, symSize: 0x54 }
  - { offsetInCU: 0x260AE, offset: 0x260AE, size: 0x8, addend: 0x0, symName: __ZNSt3__19basic_iosIcNS_11char_traitsIcEEEC2B8ue170006Ev, symObjAddr: 0x25BF4, symBinAddr: 0x100027FA8, symSize: 0x118 }
  - { offsetInCU: 0x260D8, offset: 0x260D8, size: 0x8, addend: 0x0, symName: __ZNKSt3__110unique_ptrIN3ppc12fdostreambufENS_14default_deleteIS2_EEE3getB8ue170006Ev, symObjAddr: 0x25D0C, symBinAddr: 0x1000280C0, symSize: 0x13C }
  - { offsetInCU: 0x260FE, offset: 0x260FE, size: 0x8, addend: 0x0, symName: __ZNSt3__113basic_ostreamIcNS_11char_traitsIcEEEC2B8ue170006EPNS_15basic_streambufIcS2_EE, symObjAddr: 0x25E48, symBinAddr: 0x1000281FC, symSize: 0x380 }
  - { offsetInCU: 0x26143, offset: 0x26143, size: 0x8, addend: 0x0, symName: __ZNSt3__110unique_ptrIN3ppc12fdostreambufENS_14default_deleteIS2_EEEC1B8ue170006EOS5_, symObjAddr: 0x261C8, symBinAddr: 0x10002857C, symSize: 0x80 }
  - { offsetInCU: 0x2617B, offset: 0x2617B, size: 0x8, addend: 0x0, symName: __ZN3ppc9fdostreamD1Ev, symObjAddr: 0x26248, symBinAddr: 0x1000285FC, symSize: 0x8C }
  - { offsetInCU: 0x261A7, offset: 0x261A7, size: 0x8, addend: 0x0, symName: __ZN3ppc9fdostreamD0Ev, symObjAddr: 0x262D4, symBinAddr: 0x100028688, symSize: 0x74 }
  - { offsetInCU: 0x261D3, offset: 0x261D3, size: 0x8, addend: 0x0, symName: __ZTv0_n24_N3ppc9fdostreamD1Ev, symObjAddr: 0x26348, symBinAddr: 0x1000286FC, symSize: 0xB0 }
  - { offsetInCU: 0x261E9, offset: 0x261E9, size: 0x8, addend: 0x0, symName: __ZTv0_n24_N3ppc9fdostreamD0Ev, symObjAddr: 0x263F8, symBinAddr: 0x1000287AC, symSize: 0xA8 }
  - { offsetInCU: 0x261FF, offset: 0x261FF, size: 0x8, addend: 0x0, symName: __ZNSt3__18ios_baseC2B8ue170006Ev, symObjAddr: 0x264A0, symBinAddr: 0x100028854, symSize: 0xCC }
  - { offsetInCU: 0x26229, offset: 0x26229, size: 0x8, addend: 0x0, symName: __ZNKSt3__117__compressed_pairIPN3ppc12fdostreambufENS_14default_deleteIS2_EEE5firstB8ue170006Ev, symObjAddr: 0x2656C, symBinAddr: 0x100028920, symSize: 0x124 }
  - { offsetInCU: 0x2624F, offset: 0x2624F, size: 0x8, addend: 0x0, symName: __ZNKSt3__122__compressed_pair_elemIPN3ppc12fdostreambufELi0ELb0EE5__getB8ue170006Ev, symObjAddr: 0x26690, symBinAddr: 0x100028A44, symSize: 0xAC }
  - { offsetInCU: 0x26275, offset: 0x26275, size: 0x8, addend: 0x0, symName: __ZNSt3__19basic_iosIcNS_11char_traitsIcEEE4initB8ue170006EPNS_15basic_streambufIcS2_EE, symObjAddr: 0x2673C, symBinAddr: 0x100028AF0, symSize: 0x2C8 }
  - { offsetInCU: 0x262AC, offset: 0x262AC, size: 0x8, addend: 0x0, symName: __ZNSt3__110unique_ptrIN3ppc12fdostreambufENS_14default_deleteIS2_EEEC2B8ue170006EOS5_, symObjAddr: 0x26A04, symBinAddr: 0x100028DB8, symSize: 0x320 }
  - { offsetInCU: 0x262E6, offset: 0x262E6, size: 0x8, addend: 0x0, symName: __ZNSt3__110unique_ptrIN3ppc12fdostreambufENS_14default_deleteIS2_EEE7releaseB8ue170006Ev, symObjAddr: 0x26D24, symBinAddr: 0x1000290D8, symSize: 0x20C }
  - { offsetInCU: 0x2631B, offset: 0x2631B, size: 0x8, addend: 0x0, symName: __ZNSt3__110unique_ptrIN3ppc12fdostreambufENS_14default_deleteIS2_EEE11get_deleterB8ue170006Ev, symObjAddr: 0x26F30, symBinAddr: 0x1000292E4, symSize: 0xDC }
  - { offsetInCU: 0x2634D, offset: 0x2634D, size: 0x8, addend: 0x0, symName: __ZNSt3__117__compressed_pairIPN3ppc12fdostreambufENS_14default_deleteIS2_EEEC1B8ue170006IS3_S5_EEOT_OT0_, symObjAddr: 0x2700C, symBinAddr: 0x1000293C0, symSize: 0x88 }
  - { offsetInCU: 0x263A5, offset: 0x263A5, size: 0x8, addend: 0x0, symName: __ZNSt3__117__compressed_pairIPN3ppc12fdostreambufENS_14default_deleteIS2_EEE5firstB8ue170006Ev, symObjAddr: 0x27094, symBinAddr: 0x100029448, symSize: 0x124 }
  - { offsetInCU: 0x263CB, offset: 0x263CB, size: 0x8, addend: 0x0, symName: __ZNSt3__122__compressed_pair_elemIPN3ppc12fdostreambufELi0ELb0EE5__getB8ue170006Ev, symObjAddr: 0x271B8, symBinAddr: 0x10002956C, symSize: 0xAC }
  - { offsetInCU: 0x263F1, offset: 0x263F1, size: 0x8, addend: 0x0, symName: __ZNSt3__117__compressed_pairIPN3ppc12fdostreambufENS_14default_deleteIS2_EEE6secondB8ue170006Ev, symObjAddr: 0x27264, symBinAddr: 0x100029618, symSize: 0x108 }
  - { offsetInCU: 0x26417, offset: 0x26417, size: 0x8, addend: 0x0, symName: __ZNSt3__122__compressed_pair_elemINS_14default_deleteIN3ppc12fdostreambufEEELi1ELb1EE5__getB8ue170006Ev, symObjAddr: 0x2736C, symBinAddr: 0x100029720, symSize: 0x74 }
  - { offsetInCU: 0x2643D, offset: 0x2643D, size: 0x8, addend: 0x0, symName: __ZNSt3__117__compressed_pairIPN3ppc12fdostreambufENS_14default_deleteIS2_EEEC2B8ue170006IS3_S5_EEOT_OT0_, symObjAddr: 0x273E0, symBinAddr: 0x100029794, symSize: 0x170 }
  - { offsetInCU: 0x26495, offset: 0x26495, size: 0x8, addend: 0x0, symName: __ZNSt3__122__compressed_pair_elemIPN3ppc12fdostreambufELi0ELb0EEC2B8ue170006IS3_vEEOT_, symObjAddr: 0x27550, symBinAddr: 0x100029904, symSize: 0x144 }
  - { offsetInCU: 0x264D7, offset: 0x264D7, size: 0x8, addend: 0x0, symName: __ZNSt3__122__compressed_pair_elemINS_14default_deleteIN3ppc12fdostreambufEEELi1ELb1EEC2B8ue170006IS4_vEEOT_, symObjAddr: 0x27694, symBinAddr: 0x100029A48, symSize: 0x58 }
  - { offsetInCU: 0x26519, offset: 0x26519, size: 0x8, addend: 0x0, symName: __ZN3ppc9fdostreamD2Ev, symObjAddr: 0x276EC, symBinAddr: 0x100029AA0, symSize: 0x1E8 }
  - { offsetInCU: 0x26552, offset: 0x26552, size: 0x8, addend: 0x0, symName: __ZNSt3__110unique_ptrIN3ppc12fdostreambufENS_14default_deleteIS2_EEED2B8ue170006Ev, symObjAddr: 0x278D4, symBinAddr: 0x100029C88, symSize: 0x7C }
  - { offsetInCU: 0x2657C, offset: 0x2657C, size: 0x8, addend: 0x0, symName: __ZNSt3__110unique_ptrIN3ppc12fdostreambufENS_14default_deleteIS2_EEE5resetB8ue170006EPS2_, symObjAddr: 0x27950, symBinAddr: 0x100029D04, symSize: 0x2B0 }
  - { offsetInCU: 0x265C0, offset: 0x265C0, size: 0x8, addend: 0x0, symName: __ZNKSt3__114default_deleteIN3ppc12fdostreambufEEclB8ue170006EPS2_, symObjAddr: 0x27C00, symBinAddr: 0x100029FB4, symSize: 0x1DC }
  - { offsetInCU: 0x265F4, offset: 0x265F4, size: 0x8, addend: 0x0, symName: __ZNSt3__110unique_ptrIN3ppc9fdostreamENS_14default_deleteIS2_EEEC2B8ue170006ILb1EvEEPS2_, symObjAddr: 0x27DDC, symBinAddr: 0x10002A190, symSize: 0x2B8 }
  - { offsetInCU: 0x2663C, offset: 0x2663C, size: 0x8, addend: 0x0, symName: __ZNSt3__117__compressed_pairIPN3ppc9fdostreamENS_14default_deleteIS2_EEEC1B8ue170006IRS3_NS_16__value_init_tagEEEOT_OT0_, symObjAddr: 0x28094, symBinAddr: 0x10002A448, symSize: 0x88 }
  - { offsetInCU: 0x26694, offset: 0x26694, size: 0x8, addend: 0x0, symName: __ZNSt3__117__compressed_pairIPN3ppc9fdostreamENS_14default_deleteIS2_EEEC2B8ue170006IRS3_NS_16__value_init_tagEEEOT_OT0_, symObjAddr: 0x2811C, symBinAddr: 0x10002A4D0, symSize: 0x140 }
  - { offsetInCU: 0x266EC, offset: 0x266EC, size: 0x8, addend: 0x0, symName: __ZNSt3__122__compressed_pair_elemIPN3ppc9fdostreamELi0ELb0EEC2B8ue170006IRS3_vEEOT_, symObjAddr: 0x2825C, symBinAddr: 0x10002A610, symSize: 0x144 }
  - { offsetInCU: 0x2672E, offset: 0x2672E, size: 0x8, addend: 0x0, symName: __ZNSt3__122__compressed_pair_elemINS_14default_deleteIN3ppc9fdostreamEEELi1ELb1EEC2B8ue170006ENS_16__value_init_tagE, symObjAddr: 0x283A0, symBinAddr: 0x10002A754, symSize: 0x54 }
  - { offsetInCU: 0x26763, offset: 0x26763, size: 0x8, addend: 0x0, symName: __ZNSt3__110unique_ptrIN3ppc9fdostreamENS_14default_deleteIS2_EEE7releaseB8ue170006Ev, symObjAddr: 0x283F4, symBinAddr: 0x10002A7A8, symSize: 0x20C }
  - { offsetInCU: 0x26798, offset: 0x26798, size: 0x8, addend: 0x0, symName: __ZNSt3__110unique_ptrIN3ppc9fdostreamENS_14default_deleteIS2_EEE11get_deleterB8ue170006Ev, symObjAddr: 0x28600, symBinAddr: 0x10002A9B4, symSize: 0xDC }
  - { offsetInCU: 0x267DF, offset: 0x267DF, size: 0x8, addend: 0x0, symName: __ZNKSt3__113basic_ostreamIcNS_11char_traitsIcEEE6sentrycvbB8ue170006Ev, symObjAddr: 0x29718, symBinAddr: 0x10002BACC, symSize: 0x104 }
  - { offsetInCU: 0x26805, offset: 0x26805, size: 0x8, addend: 0x0, symName: __ZNSt3__119ostreambuf_iteratorIcNS_11char_traitsIcEEEC1B8ue170006ERNS_13basic_ostreamIcS2_EE, symObjAddr: 0x2A3A4, symBinAddr: 0x10002C758, symSize: 0x80 }
  - { offsetInCU: 0x2683D, offset: 0x2683D, size: 0x8, addend: 0x0, symName: __ZNKSt3__18ios_base5flagsB8ue170006Ev, symObjAddr: 0x2A424, symBinAddr: 0x10002C7D8, symSize: 0x160 }
  - { offsetInCU: 0x26865, offset: 0x26865, size: 0x8, addend: 0x0, symName: __ZNKSt3__19basic_iosIcNS_11char_traitsIcEEE4fillB8ue170006Ev, symObjAddr: 0x2A584, symBinAddr: 0x10002C938, symSize: 0x39C }
  - { offsetInCU: 0x2688D, offset: 0x2688D, size: 0x8, addend: 0x0, symName: __ZNKSt3__119ostreambuf_iteratorIcNS_11char_traitsIcEEE6failedB8ue170006Ev, symObjAddr: 0x2A920, symBinAddr: 0x10002CCD4, symSize: 0xB8 }
  - { offsetInCU: 0x268B3, offset: 0x268B3, size: 0x8, addend: 0x0, symName: __ZNSt3__19basic_iosIcNS_11char_traitsIcEEE8setstateB8ue170006Ej, symObjAddr: 0x2A9D8, symBinAddr: 0x10002CD8C, symSize: 0x128 }
  - { offsetInCU: 0x268E8, offset: 0x268E8, size: 0x8, addend: 0x0, symName: __ZNKSt3__18ios_base5widthB8ue170006Ev, symObjAddr: 0x2AB00, symBinAddr: 0x10002CEB4, symSize: 0x138 }
  - { offsetInCU: 0x26910, offset: 0x26910, size: 0x8, addend: 0x0, symName: __ZNSt3__115basic_streambufIcNS_11char_traitsIcEEE5sputnB8ue170006EPKcl, symObjAddr: 0x2AC38, symBinAddr: 0x10002CFEC, symSize: 0x198 }
  - { offsetInCU: 0x26952, offset: 0x26952, size: 0x8, addend: 0x0, symName: __ZNSt3__112basic_stringIcNS_11char_traitsIcEENS_9allocatorIcEEEC1B8ue170006Emc, symObjAddr: 0x2ADD0, symBinAddr: 0x10002D184, symSize: 0x88 }
  - { offsetInCU: 0x2699A, offset: 0x2699A, size: 0x8, addend: 0x0, symName: __ZNSt3__112basic_stringIcNS_11char_traitsIcEENS_9allocatorIcEEE4dataB8ue170006Ev, symObjAddr: 0x2AE58, symBinAddr: 0x10002D20C, symSize: 0x70 }
  - { offsetInCU: 0x269C0, offset: 0x269C0, size: 0x8, addend: 0x0, symName: __ZNSt3__18ios_base5widthB8ue170006El, symObjAddr: 0x2AEC8, symBinAddr: 0x10002D27C, symSize: 0x1F8 }
  - { offsetInCU: 0x26A06, offset: 0x26A06, size: 0x8, addend: 0x0, symName: __ZNSt3__112basic_stringIcNS_11char_traitsIcEENS_9allocatorIcEEEC2B8ue170006Emc, symObjAddr: 0x2B0C0, symBinAddr: 0x10002D474, symSize: 0x26C }
  - { offsetInCU: 0x26A51, offset: 0x26A51, size: 0x8, addend: 0x0, symName: __ZNSt3__112basic_stringIcNS_11char_traitsIcEENS_9allocatorIcEEE13__get_pointerB8ue170006Ev, symObjAddr: 0x2B340, symBinAddr: 0x10002D6F4, symSize: 0x98 }
  - { offsetInCU: 0x26A77, offset: 0x26A77, size: 0x8, addend: 0x0, symName: __ZNSt3__112basic_stringIcNS_11char_traitsIcEENS_9allocatorIcEEE18__get_long_pointerB8ue170006Ev, symObjAddr: 0x2B3D8, symBinAddr: 0x10002D78C, symSize: 0x208 }
  - { offsetInCU: 0x26A9D, offset: 0x26A9D, size: 0x8, addend: 0x0, symName: __ZNSt3__112basic_stringIcNS_11char_traitsIcEENS_9allocatorIcEEE19__get_short_pointerB8ue170006Ev, symObjAddr: 0x2B5E0, symBinAddr: 0x10002D994, symSize: 0x1CC }
  - { offsetInCU: 0x26AC3, offset: 0x26AC3, size: 0x8, addend: 0x0, symName: __ZNSt3__114pointer_traitsIPcE10pointer_toB8ue170006ERc, symObjAddr: 0x2B7AC, symBinAddr: 0x10002DB60, symSize: 0x14 }
  - { offsetInCU: 0x26AE6, offset: 0x26AE6, size: 0x8, addend: 0x0, symName: __ZNSt3__119ostreambuf_iteratorIcNS_11char_traitsIcEEEC2B8ue170006ERNS_13basic_ostreamIcS2_EE, symObjAddr: 0x2B7C0, symBinAddr: 0x10002DB74, symSize: 0x2E8 }
  - { offsetInCU: 0x26B1E, offset: 0x26B1E, size: 0x8, addend: 0x0, symName: __ZNKSt3__19basic_iosIcNS_11char_traitsIcEEE5rdbufB8ue170006Ev, symObjAddr: 0x2BAA8, symBinAddr: 0x10002DE5C, symSize: 0x120 }
  - { offsetInCU: 0x26B46, offset: 0x26B46, size: 0x8, addend: 0x0, symName: __ZNKSt3__18ios_base5rdbufB8ue170006Ev, symObjAddr: 0x2BBC8, symBinAddr: 0x10002DF7C, symSize: 0x138 }
  - { offsetInCU: 0x26B6C, offset: 0x26B6C, size: 0x8, addend: 0x0, symName: __ZNKSt3__19basic_iosIcNS_11char_traitsIcEEE5widenB8ue170006Ec, symObjAddr: 0x2BD00, symBinAddr: 0x10002E0B4, symSize: 0x47C }
  - { offsetInCU: 0x26BCD, offset: 0x26BCD, size: 0x8, addend: 0x0, symName: __ZNKSt3__15ctypeIcE5widenB8ue170006Ec, symObjAddr: 0x2C304, symBinAddr: 0x10002E6B8, symSize: 0x18C }
  - { offsetInCU: 0x26C02, offset: 0x26C02, size: 0x8, addend: 0x0, symName: __ZNSt3__18ios_base8setstateB8ue170006Ej, symObjAddr: 0x2C490, symBinAddr: 0x10002E844, symSize: 0x1E0 }
  - { offsetInCU: 0x26C39, offset: 0x26C39, size: 0x8, addend: 0x0, symName: __ZNSt3__113basic_istreamIcNS_11char_traitsIcEEEC2B8ue170006EPNS_15basic_streambufIcS2_EE, symObjAddr: 0x2C670, symBinAddr: 0x10002EA24, symSize: 0x3B8 }
  - { offsetInCU: 0x26C7E, offset: 0x26C7E, size: 0x8, addend: 0x0, symName: __ZNKSt3__19basic_iosIcNS_11char_traitsIcEEE4failB8ue170006Ev, symObjAddr: 0x2CA28, symBinAddr: 0x10002EDDC, symSize: 0x124 }
  - { offsetInCU: 0x26CA4, offset: 0x26CA4, size: 0x8, addend: 0x0, symName: __ZNKSt3__18ios_base4failB8ue170006Ev, symObjAddr: 0x2CB4C, symBinAddr: 0x10002EF00, symSize: 0x170 }
  - { offsetInCU: 0x26CCC, offset: 0x26CCC, size: 0x8, addend: 0x0, symName: __ZNSt3__112basic_stringIcNS_11char_traitsIcEENS_9allocatorIcEEEC2B8ue170006Ev, symObjAddr: 0x2CCBC, symBinAddr: 0x10002F070, symSize: 0x270 }
  - { offsetInCU: 0x26D12, offset: 0x26D12, size: 0x8, addend: 0x0, symName: __ZNKSt3__113basic_istreamIcNS_11char_traitsIcEEE6sentrycvbB8ue170006Ev, symObjAddr: 0x2CF2C, symBinAddr: 0x10002F2E0, symSize: 0xE8 }
  - { offsetInCU: 0x26D38, offset: 0x26D38, size: 0x8, addend: 0x0, symName: __ZNSt3__112basic_stringIcNS_11char_traitsIcEENS_9allocatorIcEEE5clearB8ue170006Ev, symObjAddr: 0x2D014, symBinAddr: 0x10002F3C8, symSize: 0x398 }
  - { offsetInCU: 0x26D61, offset: 0x26D61, size: 0x8, addend: 0x0, symName: __ZNKSt3__112basic_stringIcNS_11char_traitsIcEENS_9allocatorIcEEE8max_sizeB8ue170006Ev, symObjAddr: 0x2D3AC, symBinAddr: 0x10002F760, symSize: 0x1B8 }
  - { offsetInCU: 0x26DB4, offset: 0x26DB4, size: 0x8, addend: 0x0, symName: __ZNSt3__115basic_streambufIcNS_11char_traitsIcEEE5sgetcB8ue170006Ev, symObjAddr: 0x2D564, symBinAddr: 0x10002F918, symSize: 0x418 }
  - { offsetInCU: 0x26DDA, offset: 0x26DDA, size: 0x8, addend: 0x0, symName: __ZNSt3__111char_traitsIcE12to_char_typeB8ue170006Ei, symObjAddr: 0x2D97C, symBinAddr: 0x10002FD30, symSize: 0x18 }
  - { offsetInCU: 0x26DFD, offset: 0x26DFD, size: 0x8, addend: 0x0, symName: __ZNKSt3__15ctypeIcE2isB8ue170006Ejc, symObjAddr: 0x2D994, symBinAddr: 0x10002FD48, symSize: 0x314 }
  - { offsetInCU: 0x26E41, offset: 0x26E41, size: 0x8, addend: 0x0, symName: __ZNSt3__115basic_streambufIcNS_11char_traitsIcEEE6sbumpcB8ue170006Ev, symObjAddr: 0x2DCA8, symBinAddr: 0x10003005C, symSize: 0x4D8 }
  - { offsetInCU: 0x26E67, offset: 0x26E67, size: 0x8, addend: 0x0, symName: __ZNSt3__18ios_base18__setstate_nothrowB8ue170006Ej, symObjAddr: 0x2E180, symBinAddr: 0x100030534, symSize: 0x320 }
  - { offsetInCU: 0x26E9C, offset: 0x26E9C, size: 0x8, addend: 0x0, symName: __ZNKSt3__19basic_iosIcNS_11char_traitsIcEEE10exceptionsB8ue170006Ev, symObjAddr: 0x2E4A0, symBinAddr: 0x100030854, symSize: 0x120 }
  - { offsetInCU: 0x26EC2, offset: 0x26EC2, size: 0x8, addend: 0x0, symName: __ZNSt3__111char_traitsIcE6assignB8ue170006ERcRKc, symObjAddr: 0x2E5C0, symBinAddr: 0x100030974, symSize: 0xF4 }
  - { offsetInCU: 0x26EF3, offset: 0x26EF3, size: 0x8, addend: 0x0, symName: __ZNSt3__112basic_stringIcNS_11char_traitsIcEENS_9allocatorIcEEE15__set_long_sizeB8ue170006Em, symObjAddr: 0x2E6B4, symBinAddr: 0x100030A68, symSize: 0x220 }
  - { offsetInCU: 0x26F28, offset: 0x26F28, size: 0x8, addend: 0x0, symName: __ZNSt3__112basic_stringIcNS_11char_traitsIcEENS_9allocatorIcEEE16__set_short_sizeB8ue170006Em, symObjAddr: 0x2E8D4, symBinAddr: 0x100030C88, symSize: 0x394 }
  - { offsetInCU: 0x26F68, offset: 0x26F68, size: 0x8, addend: 0x0, symName: __ZNSt3__116allocator_traitsINS_9allocatorIcEEE8max_sizeB8ue170006IS2_vvEEmRKS2_, symObjAddr: 0x2EC68, symBinAddr: 0x10003101C, symSize: 0x54 }
  - { offsetInCU: 0x26F94, offset: 0x26F94, size: 0x8, addend: 0x0, symName: __ZNKSt3__112basic_stringIcNS_11char_traitsIcEENS_9allocatorIcEEE7__allocB8ue170006Ev, symObjAddr: 0x2ECBC, symBinAddr: 0x100031070, symSize: 0xDC }
  - { offsetInCU: 0x26FBA, offset: 0x26FBA, size: 0x8, addend: 0x0, symName: __ZNKSt3__117__compressed_pairINS_12basic_stringIcNS_11char_traitsIcEENS_9allocatorIcEEE5__repES5_E6secondB8ue170006Ev, symObjAddr: 0x2ED98, symBinAddr: 0x10003114C, symSize: 0x108 }
  - { offsetInCU: 0x26FE0, offset: 0x26FE0, size: 0x8, addend: 0x0, symName: __ZNKSt3__122__compressed_pair_elemINS_9allocatorIcEELi1ELb1EE5__getB8ue170006Ev, symObjAddr: 0x2EEA0, symBinAddr: 0x100031254, symSize: 0x74 }
  - { offsetInCU: 0x27006, offset: 0x27006, size: 0x8, addend: 0x0, symName: __ZNSt3__111char_traitsIcE11to_int_typeB8ue170006Ec, symObjAddr: 0x2EF14, symBinAddr: 0x1000312C8, symSize: 0x14 }
  - { offsetInCU: 0x2702A, offset: 0x2702A, size: 0x8, addend: 0x0, symName: __Z7isasciii, symObjAddr: 0x2EF28, symBinAddr: 0x1000312DC, symSize: 0x24 }
  - { offsetInCU: 0x27057, offset: 0x27057, size: 0x8, addend: 0x0, symName: __ZNKSt3__18ios_base10exceptionsB8ue170006Ev, symObjAddr: 0x2EF4C, symBinAddr: 0x100031300, symSize: 0x160 }
  - { offsetInCU: 0x2707F, offset: 0x2707F, size: 0x8, addend: 0x0, symName: __ZNSt3__123__libcpp_numeric_limitsIlLb1EE3maxB8ue170006Ev, symObjAddr: 0x2F0AC, symBinAddr: 0x100031460, symSize: 0x8 }
  - { offsetInCU: 0x27093, offset: 0x27093, size: 0x8, addend: 0x0, symName: __ZNSt3__110unique_ptrIN12_GLOBAL__N_110ISTestCaseENS_14default_deleteIS2_EEEC1B8ue170006INS1_12RectTestCaseENS3_IS7_EEvvEEONS0_IT_T0_EE, symObjAddr: 0x2F498, symBinAddr: 0x10003184C, symSize: 0x80 }
  - { offsetInCU: 0x270DF, offset: 0x270DF, size: 0x8, addend: 0x0, symName: __ZNSt3__110unique_ptrIN12_GLOBAL__N_112RectTestCaseENS_14default_deleteIS2_EEED1B8ue170006Ev, symObjAddr: 0x2F518, symBinAddr: 0x1000318CC, symSize: 0x78 }
  - { offsetInCU: 0x27109, offset: 0x27109, size: 0x8, addend: 0x0, symName: __ZNSt3__110unique_ptrIN12_GLOBAL__N_110ISTestCaseENS_14default_deleteIS2_EEEC1B8ue170006INS1_16GradientTestCaseENS3_IS7_EEvvEEONS0_IT_T0_EE, symObjAddr: 0x2F7EC, symBinAddr: 0x100031BA0, symSize: 0x80 }
  - { offsetInCU: 0x27155, offset: 0x27155, size: 0x8, addend: 0x0, symName: __ZNSt3__110unique_ptrIN12_GLOBAL__N_116GradientTestCaseENS_14default_deleteIS2_EEED1B8ue170006Ev, symObjAddr: 0x2F86C, symBinAddr: 0x100031C20, symSize: 0x78 }
  - { offsetInCU: 0x2717F, offset: 0x2717F, size: 0x8, addend: 0x0, symName: __ZNSt3__110unique_ptrIN12_GLOBAL__N_110ISTestCaseENS_14default_deleteIS2_EEEC1B8ue170006INS1_15VoronoiTestCaseENS3_IS7_EEvvEEONS0_IT_T0_EE, symObjAddr: 0x300E4, symBinAddr: 0x100032498, symSize: 0x80 }
  - { offsetInCU: 0x271CB, offset: 0x271CB, size: 0x8, addend: 0x0, symName: __ZNSt3__110unique_ptrIN12_GLOBAL__N_115VoronoiTestCaseENS_14default_deleteIS2_EEED1B8ue170006Ev, symObjAddr: 0x30164, symBinAddr: 0x100032518, symSize: 0x78 }
  - { offsetInCU: 0x271F5, offset: 0x271F5, size: 0x8, addend: 0x0, symName: __ZNSt3__110unique_ptrIN12_GLOBAL__N_110ISTestCaseENS_14default_deleteIS2_EEEC1B8ue170006INS1_9FixedTestENS3_IS7_EEvvEEONS0_IT_T0_EE, symObjAddr: 0x30490, symBinAddr: 0x100032844, symSize: 0x80 }
  - { offsetInCU: 0x27241, offset: 0x27241, size: 0x8, addend: 0x0, symName: __ZNSt3__110unique_ptrIN12_GLOBAL__N_19FixedTestENS_14default_deleteIS2_EEED1B8ue170006Ev, symObjAddr: 0x30510, symBinAddr: 0x1000328C4, symSize: 0x78 }
  - { offsetInCU: 0x2726B, offset: 0x2726B, size: 0x8, addend: 0x0, symName: __ZN12_GLOBAL__N_112RectTestCaseC1Eiibb, symObjAddr: 0x30588, symBinAddr: 0x10003293C, symSize: 0x11C }
  - { offsetInCU: 0x272CD, offset: 0x272CD, size: 0x8, addend: 0x0, symName: __ZNSt3__110unique_ptrIN12_GLOBAL__N_112RectTestCaseENS_14default_deleteIS2_EEEC1B8ue170006ILb1EvEEPS2_, symObjAddr: 0x306A4, symBinAddr: 0x100032A58, symSize: 0x80 }
  - { offsetInCU: 0x27310, offset: 0x27310, size: 0x8, addend: 0x0, symName: __ZN12_GLOBAL__N_112RectTestCaseC2Eiibb, symObjAddr: 0x30724, symBinAddr: 0x100032AD8, symSize: 0x3D0 }
  - { offsetInCU: 0x27372, offset: 0x27372, size: 0x8, addend: 0x0, symName: __ZN12_GLOBAL__N_110ISTestCaseC2Eii, symObjAddr: 0x30AF4, symBinAddr: 0x100032EA8, symSize: 0x1AC }
  - { offsetInCU: 0x273B8, offset: 0x273B8, size: 0x8, addend: 0x0, symName: __ZNSt16invalid_argumentC1B8ue170006EPKc, symObjAddr: 0x30CA0, symBinAddr: 0x100033054, symSize: 0x80 }
  - { offsetInCU: 0x273F0, offset: 0x273F0, size: 0x8, addend: 0x0, symName: __ZN12_GLOBAL__N_110ISTestCaseD2Ev, symObjAddr: 0x30D20, symBinAddr: 0x1000330D4, symSize: 0x6C }
  - { offsetInCU: 0x2741A, offset: 0x2741A, size: 0x8, addend: 0x0, symName: __ZN12_GLOBAL__N_112RectTestCaseD1Ev, symObjAddr: 0x30D8C, symBinAddr: 0x100033140, symSize: 0x78 }
  - { offsetInCU: 0x27446, offset: 0x27446, size: 0x8, addend: 0x0, symName: __ZN12_GLOBAL__N_112RectTestCaseD0Ev, symObjAddr: 0x30E04, symBinAddr: 0x1000331B8, symSize: 0x74 }
  - { offsetInCU: 0x27472, offset: 0x27472, size: 0x8, addend: 0x0, symName: __ZNK12_GLOBAL__N_112RectTestCase8generateERN3ppc6randomE, symObjAddr: 0x30E78, symBinAddr: 0x10003322C, symSize: 0x2900 }
  - { offsetInCU: 0x275B1, offset: 0x275B1, size: 0x8, addend: 0x0, symName: __ZN12_GLOBAL__N_110ISTestCaseD1Ev, symObjAddr: 0x33778, symBinAddr: 0x100035B2C, symSize: 0x64 }
  - { offsetInCU: 0x275DB, offset: 0x275DB, size: 0x8, addend: 0x0, symName: __ZN12_GLOBAL__N_110ISTestCaseD0Ev, symObjAddr: 0x337DC, symBinAddr: 0x100035B90, symSize: 0x5C }
  - { offsetInCU: 0x27605, offset: 0x27605, size: 0x8, addend: 0x0, symName: __ZNSt16invalid_argumentC2B8ue170006EPKc, symObjAddr: 0x33838, symBinAddr: 0x100035BEC, symSize: 0x128 }
  - { offsetInCU: 0x2763D, offset: 0x2763D, size: 0x8, addend: 0x0, symName: __ZN12_GLOBAL__N_112RectTestCaseD2Ev, symObjAddr: 0x33960, symBinAddr: 0x100035D14, symSize: 0x78 }
  - { offsetInCU: 0x27669, offset: 0x27669, size: 0x8, addend: 0x0, symName: __ZNK12_GLOBAL__N_112RectTestCase15choose_locationERN3ppc6randomE, symObjAddr: 0x339D8, symBinAddr: 0x100035D8C, symSize: 0xF08 }
  - { offsetInCU: 0x276DB, offset: 0x276DB, size: 0x8, addend: 0x0, symName: __ZN3ppc6random10get_uint64Eyy, symObjAddr: 0x348E0, symBinAddr: 0x100036C94, symSize: 0x3D4 }
  - { offsetInCU: 0x27764, offset: 0x27764, size: 0x8, addend: 0x0, symName: __ZNSt3__16vectorIfNS_9allocatorIfEEEC1Em, symObjAddr: 0x36118, symBinAddr: 0x1000384CC, symSize: 0x80 }
  - { offsetInCU: 0x2779F, offset: 0x2779F, size: 0x8, addend: 0x0, symName: __ZNSt3__16vectorIfNS_9allocatorIfEEEixB8ue170006Em, symObjAddr: 0x36198, symBinAddr: 0x10003854C, symSize: 0x1CC }
  - { offsetInCU: 0x277D6, offset: 0x277D6, size: 0x8, addend: 0x0, symName: __ZNSt3__16vectorIfNS_9allocatorIfEEEC1B8ue170006EOS3_, symObjAddr: 0x36364, symBinAddr: 0x100038718, symSize: 0x80 }
  - { offsetInCU: 0x27811, offset: 0x27811, size: 0x8, addend: 0x0, symName: __ZNSt3__16vectorIfNS_9allocatorIfEEED1B8ue170006Ev, symObjAddr: 0x363E4, symBinAddr: 0x100038798, symSize: 0x78 }
  - { offsetInCU: 0x2783B, offset: 0x2783B, size: 0x8, addend: 0x0, symName: __ZN3ppc6random9get_int32Eii, symObjAddr: 0x3645C, symBinAddr: 0x100038810, symSize: 0x7C }
  - { offsetInCU: 0x2787D, offset: 0x2787D, size: 0x8, addend: 0x0, symName: __ZN3ppc6random9get_int64Exx, symObjAddr: 0x364D8, symBinAddr: 0x10003888C, symSize: 0x1CC }
  - { offsetInCU: 0x27905, offset: 0x27905, size: 0x8, addend: 0x0, symName: __ZNSt3__114numeric_limitsIyE3maxB8ue170006Ev, symObjAddr: 0x366A4, symBinAddr: 0x100038A58, symSize: 0x14 }
  - { offsetInCU: 0x27919, offset: 0x27919, size: 0x8, addend: 0x0, symName: __ZNSt3__123mersenne_twister_engineIjLm32ELm624ELm397ELm31ELj2567483615ELm11ELj4294967295ELm7ELj2636928640ELm15ELj4022730752ELm18ELj1812433253EEclEv, symObjAddr: 0x366B8, symBinAddr: 0x100038A6C, symSize: 0xD58 }
  - { offsetInCU: 0x2798C, offset: 0x2798C, size: 0x8, addend: 0x0, symName: __ZNSt3__123__libcpp_numeric_limitsIyLb1EE3maxB8ue170006Ev, symObjAddr: 0x37410, symBinAddr: 0x1000397C4, symSize: 0x8 }
  - { offsetInCU: 0x279A0, offset: 0x279A0, size: 0x8, addend: 0x0, symName: __ZNSt3__123mersenne_twister_engineIjLm32ELm624ELm397ELm31ELj2567483615ELm11ELj4294967295ELm7ELj2636928640ELm15ELj4022730752ELm18ELj1812433253EE8__rshiftB8ue170006ILm1EEENS_9enable_ifIXltT_L_ZNS1_3_DtEEEjE4typeEj, symObjAddr: 0x37418, symBinAddr: 0x1000397CC, symSize: 0x50 }
  - { offsetInCU: 0x279CD, offset: 0x279CD, size: 0x8, addend: 0x0, symName: __ZNSt3__123mersenne_twister_engineIjLm32ELm624ELm397ELm31ELj2567483615ELm11ELj4294967295ELm7ELj2636928640ELm15ELj4022730752ELm18ELj1812433253EE8__rshiftB8ue170006ILm11EEENS_9enable_ifIXltT_L_ZNS1_3_DtEEEjE4typeEj, symObjAddr: 0x37468, symBinAddr: 0x10003981C, symSize: 0x50 }
  - { offsetInCU: 0x279FA, offset: 0x279FA, size: 0x8, addend: 0x0, symName: __ZNSt3__123mersenne_twister_engineIjLm32ELm624ELm397ELm31ELj2567483615ELm11ELj4294967295ELm7ELj2636928640ELm15ELj4022730752ELm18ELj1812433253EE8__lshiftB8ue170006ILm7EEENS_9enable_ifIXltT_Lm32EEjE4typeEj, symObjAddr: 0x374B8, symBinAddr: 0x10003986C, symSize: 0x58 }
  - { offsetInCU: 0x27A27, offset: 0x27A27, size: 0x8, addend: 0x0, symName: __ZNSt3__123mersenne_twister_engineIjLm32ELm624ELm397ELm31ELj2567483615ELm11ELj4294967295ELm7ELj2636928640ELm15ELj4022730752ELm18ELj1812433253EE8__lshiftB8ue170006ILm15EEENS_9enable_ifIXltT_Lm32EEjE4typeEj, symObjAddr: 0x37510, symBinAddr: 0x1000398C4, symSize: 0x58 }
  - { offsetInCU: 0x27A54, offset: 0x27A54, size: 0x8, addend: 0x0, symName: __ZNSt3__123mersenne_twister_engineIjLm32ELm624ELm397ELm31ELj2567483615ELm11ELj4294967295ELm7ELj2636928640ELm15ELj4022730752ELm18ELj1812433253EE8__rshiftB8ue170006ILm18EEENS_9enable_ifIXltT_L_ZNS1_3_DtEEEjE4typeEj, symObjAddr: 0x37568, symBinAddr: 0x10003991C, symSize: 0x50 }
  - { offsetInCU: 0x27A81, offset: 0x27A81, size: 0x8, addend: 0x0, symName: __ZN3ppc6random10get_doubleEv, symObjAddr: 0x375B8, symBinAddr: 0x10003996C, symSize: 0xC0 }
  - { offsetInCU: 0x27AB5, offset: 0x27AB5, size: 0x8, addend: 0x0, symName: __Z3absB8ue170006f, symObjAddr: 0x37934, symBinAddr: 0x100039CE8, symSize: 0x18 }
  - { offsetInCU: 0x27AE2, offset: 0x27AE2, size: 0x8, addend: 0x0, symName: __ZNKSt16initializer_listIfE5beginB8ue170006Ev, symObjAddr: 0x37B10, symBinAddr: 0x100039EC4, symSize: 0xAC }
  - { offsetInCU: 0x27B08, offset: 0x27B08, size: 0x8, addend: 0x0, symName: __ZNKSt16initializer_listIfE3endB8ue170006Ev, symObjAddr: 0x37BBC, symBinAddr: 0x100039F70, symSize: 0x1C0 }
  - { offsetInCU: 0x27B2E, offset: 0x27B2E, size: 0x8, addend: 0x0, symName: __ZNKSt3__16__lessIvvEclB8ue170006IffEEbRKT_RKT0_, symObjAddr: 0x37F50, symBinAddr: 0x10003A304, symSize: 0x13C }
  - { offsetInCU: 0x27B82, offset: 0x27B82, size: 0x8, addend: 0x0, symName: __ZNSt3__16vectorIfNS_9allocatorIfEEEC2Em, symObjAddr: 0x3808C, symBinAddr: 0x10003A440, symSize: 0x51C }
  - { offsetInCU: 0x27BDE, offset: 0x27BDE, size: 0x8, addend: 0x0, symName: __ZNSt3__117__compressed_pairIPfNS_9allocatorIfEEEC1B8ue170006IDnNS_18__default_init_tagEEEOT_OT0_, symObjAddr: 0x385A8, symBinAddr: 0x10003A95C, symSize: 0x88 }
  - { offsetInCU: 0x27C36, offset: 0x27C36, size: 0x8, addend: 0x0, symName: __ZNSt3__16vectorIfNS_9allocatorIfEEE16__destroy_vectorC1B8ue170006ERS3_, symObjAddr: 0x388EC, symBinAddr: 0x10003ACA0, symSize: 0x80 }
  - { offsetInCU: 0x27C6F, offset: 0x27C6F, size: 0x8, addend: 0x0, symName: __ZNSt3__16vectorIfNS_9allocatorIfEEE11__vallocateB8ue170006Em, symObjAddr: 0x3896C, symBinAddr: 0x10003AD20, symSize: 0x5E8 }
  - { offsetInCU: 0x27CB9, offset: 0x27CB9, size: 0x8, addend: 0x0, symName: __ZNSt3__16vectorIfNS_9allocatorIfEEE18__construct_at_endEm, symObjAddr: 0x38F54, symBinAddr: 0x10003B308, symSize: 0x5A0 }
  - { offsetInCU: 0x27D34, offset: 0x27D34, size: 0x8, addend: 0x0, symName: __ZNSt3__128__exception_guard_exceptionsINS_6vectorIfNS_9allocatorIfEEE16__destroy_vectorEE10__completeB8ue170006Ev, symObjAddr: 0x394F4, symBinAddr: 0x10003B8A8, symSize: 0xD8 }
  - { offsetInCU: 0x27D5A, offset: 0x27D5A, size: 0x8, addend: 0x0, symName: __ZNSt3__128__exception_guard_exceptionsINS_6vectorIfNS_9allocatorIfEEE16__destroy_vectorEED1B8ue170006Ev, symObjAddr: 0x395CC, symBinAddr: 0x10003B980, symSize: 0x78 }
  - { offsetInCU: 0x27D84, offset: 0x27D84, size: 0x8, addend: 0x0, symName: __ZNSt3__117__compressed_pairIPfNS_9allocatorIfEEEC2B8ue170006IDnNS_18__default_init_tagEEEOT_OT0_, symObjAddr: 0x39644, symBinAddr: 0x10003B9F8, symSize: 0x140 }
  - { offsetInCU: 0x27DDC, offset: 0x27DDC, size: 0x8, addend: 0x0, symName: __ZNSt3__122__compressed_pair_elemIPfLi0ELb0EEC2B8ue170006IDnvEEOT_, symObjAddr: 0x39784, symBinAddr: 0x10003BB38, symSize: 0xBC }
  - { offsetInCU: 0x27E1E, offset: 0x27E1E, size: 0x8, addend: 0x0, symName: __ZNSt3__122__compressed_pair_elemINS_9allocatorIfEELi1ELb1EEC2B8ue170006ENS_18__default_init_tagE, symObjAddr: 0x39840, symBinAddr: 0x10003BBF4, symSize: 0x84 }
  - { offsetInCU: 0x27E53, offset: 0x27E53, size: 0x8, addend: 0x0, symName: __ZNSt3__19allocatorIfEC2B8ue170006Ev, symObjAddr: 0x398C4, symBinAddr: 0x10003BC78, symSize: 0x84 }
  - { offsetInCU: 0x27E7D, offset: 0x27E7D, size: 0x8, addend: 0x0, symName: __ZNSt3__116__non_trivial_ifILb1ENS_9allocatorIfEEEC2B8ue170006Ev, symObjAddr: 0x39948, symBinAddr: 0x10003BCFC, symSize: 0x54 }
  - { offsetInCU: 0x27EA7, offset: 0x27EA7, size: 0x8, addend: 0x0, symName: __ZNSt3__128__exception_guard_exceptionsINS_6vectorIfNS_9allocatorIfEEE16__destroy_vectorEEC1B8ue170006ES5_, symObjAddr: 0x3999C, symBinAddr: 0x10003BD50, symSize: 0x28C }
  - { offsetInCU: 0x27EE4, offset: 0x27EE4, size: 0x8, addend: 0x0, symName: __ZNSt3__128__exception_guard_exceptionsINS_6vectorIfNS_9allocatorIfEEE16__destroy_vectorEEC2B8ue170006ES5_, symObjAddr: 0x39C28, symBinAddr: 0x10003BFDC, symSize: 0x2BC }
  - { offsetInCU: 0x27F21, offset: 0x27F21, size: 0x8, addend: 0x0, symName: __ZNSt3__16vectorIfNS_9allocatorIfEEE16__destroy_vectorC2B8ue170006ERS3_, symObjAddr: 0x39EE4, symBinAddr: 0x10003C298, symSize: 0x108 }
  - { offsetInCU: 0x27F5A, offset: 0x27F5A, size: 0x8, addend: 0x0, symName: __ZNKSt3__16vectorIfNS_9allocatorIfEEE8max_sizeEv, symObjAddr: 0x39FEC, symBinAddr: 0x10003C3A0, symSize: 0x3B8 }
  - { offsetInCU: 0x27F83, offset: 0x27F83, size: 0x8, addend: 0x0, symName: __ZNKSt3__16vectorIfNS_9allocatorIfEEE20__throw_length_errorB8ue170006Ev, symObjAddr: 0x3A3A4, symBinAddr: 0x10003C758, symSize: 0x80 }
  - { offsetInCU: 0x27FA9, offset: 0x27FA9, size: 0x8, addend: 0x0, symName: __ZNSt3__16vectorIfNS_9allocatorIfEEE7__allocB8ue170006Ev, symObjAddr: 0x3A6B0, symBinAddr: 0x10003CA64, symSize: 0xE4 }
  - { offsetInCU: 0x27FCF, offset: 0x27FCF, size: 0x8, addend: 0x0, symName: __ZNSt3__16vectorIfNS_9allocatorIfEEE9__end_capB8ue170006Ev, symObjAddr: 0x3A794, symBinAddr: 0x10003CB48, symSize: 0x100 }
  - { offsetInCU: 0x27FF5, offset: 0x27FF5, size: 0x8, addend: 0x0, symName: __ZNKSt3__16vectorIfNS_9allocatorIfEEE14__annotate_newB8ue170006Em, symObjAddr: 0x3A894, symBinAddr: 0x10003CC48, symSize: 0x360 }
  - { offsetInCU: 0x28035, offset: 0x28035, size: 0x8, addend: 0x0, symName: __ZNSt3__116allocator_traitsINS_9allocatorIfEEE8max_sizeB8ue170006IS2_vvEEmRKS2_, symObjAddr: 0x3ABF4, symBinAddr: 0x10003CFA8, symSize: 0x54 }
  - { offsetInCU: 0x28061, offset: 0x28061, size: 0x8, addend: 0x0, symName: __ZNKSt3__16vectorIfNS_9allocatorIfEEE7__allocB8ue170006Ev, symObjAddr: 0x3AC48, symBinAddr: 0x10003CFFC, symSize: 0xE4 }
  - { offsetInCU: 0x28087, offset: 0x28087, size: 0x8, addend: 0x0, symName: __ZNKSt3__117__compressed_pairIPfNS_9allocatorIfEEE6secondB8ue170006Ev, symObjAddr: 0x3AD2C, symBinAddr: 0x10003D0E0, symSize: 0x108 }
  - { offsetInCU: 0x280AD, offset: 0x280AD, size: 0x8, addend: 0x0, symName: __ZNKSt3__122__compressed_pair_elemINS_9allocatorIfEELi1ELb1EE5__getB8ue170006Ev, symObjAddr: 0x3AE34, symBinAddr: 0x10003D1E8, symSize: 0x74 }
  - { offsetInCU: 0x280D3, offset: 0x280D3, size: 0x8, addend: 0x0, symName: __ZNSt12length_errorC1B8ue170006EPKc, symObjAddr: 0x3AF5C, symBinAddr: 0x10003D310, symSize: 0x80 }
  - { offsetInCU: 0x2810B, offset: 0x2810B, size: 0x8, addend: 0x0, symName: __ZNSt12length_errorC2B8ue170006EPKc, symObjAddr: 0x3AFDC, symBinAddr: 0x10003D390, symSize: 0x128 }
  - { offsetInCU: 0x28143, offset: 0x28143, size: 0x8, addend: 0x0, symName: __ZNSt3__19allocatorIfE8allocateB8ue170006Em, symObjAddr: 0x3B104, symBinAddr: 0x10003D4B8, symSize: 0xCC }
  - { offsetInCU: 0x28177, offset: 0x28177, size: 0x8, addend: 0x0, symName: __ZNSt3__117__compressed_pairIPfNS_9allocatorIfEEE6secondB8ue170006Ev, symObjAddr: 0x3B1D0, symBinAddr: 0x10003D584, symSize: 0x108 }
  - { offsetInCU: 0x2819D, offset: 0x2819D, size: 0x8, addend: 0x0, symName: __ZNSt3__122__compressed_pair_elemINS_9allocatorIfEELi1ELb1EE5__getB8ue170006Ev, symObjAddr: 0x3B2D8, symBinAddr: 0x10003D68C, symSize: 0x74 }
  - { offsetInCU: 0x281C3, offset: 0x281C3, size: 0x8, addend: 0x0, symName: __ZNSt3__117__compressed_pairIPfNS_9allocatorIfEEE5firstB8ue170006Ev, symObjAddr: 0x3B34C, symBinAddr: 0x10003D700, symSize: 0x124 }
  - { offsetInCU: 0x281E9, offset: 0x281E9, size: 0x8, addend: 0x0, symName: __ZNSt3__122__compressed_pair_elemIPfLi0ELb0EE5__getB8ue170006Ev, symObjAddr: 0x3B470, symBinAddr: 0x10003D824, symSize: 0xAC }
  - { offsetInCU: 0x2820F, offset: 0x2820F, size: 0x8, addend: 0x0, symName: __ZNKSt3__16vectorIfNS_9allocatorIfEEE31__annotate_contiguous_containerEPKvS5_S5_S5_, symObjAddr: 0x3B51C, symBinAddr: 0x10003D8D0, symSize: 0x9C }
  - { offsetInCU: 0x28271, offset: 0x28271, size: 0x8, addend: 0x0, symName: __ZNKSt3__16vectorIfNS_9allocatorIfEEE4dataB8ue170006Ev, symObjAddr: 0x3B5B8, symBinAddr: 0x10003D96C, symSize: 0xB0 }
  - { offsetInCU: 0x28297, offset: 0x28297, size: 0x8, addend: 0x0, symName: __ZNKSt3__16vectorIfNS_9allocatorIfEEE8capacityB8ue170006Ev, symObjAddr: 0x3B668, symBinAddr: 0x10003DA1C, symSize: 0x144 }
  - { offsetInCU: 0x282BD, offset: 0x282BD, size: 0x8, addend: 0x0, symName: __ZNKSt3__16vectorIfNS_9allocatorIfEEE9__end_capB8ue170006Ev, symObjAddr: 0x3B7C0, symBinAddr: 0x10003DB74, symSize: 0x100 }
  - { offsetInCU: 0x282E3, offset: 0x282E3, size: 0x8, addend: 0x0, symName: __ZNKSt3__117__compressed_pairIPfNS_9allocatorIfEEE5firstB8ue170006Ev, symObjAddr: 0x3B8C0, symBinAddr: 0x10003DC74, symSize: 0x124 }
  - { offsetInCU: 0x28309, offset: 0x28309, size: 0x8, addend: 0x0, symName: __ZNKSt3__122__compressed_pair_elemIPfLi0ELb0EE5__getB8ue170006Ev, symObjAddr: 0x3B9E4, symBinAddr: 0x10003DD98, symSize: 0xAC }
  - { offsetInCU: 0x2834A, offset: 0x2834A, size: 0x8, addend: 0x0, symName: __ZNSt3__16vectorIfNS_9allocatorIfEEE21_ConstructTransactionC1B8ue170006ERS3_m, symObjAddr: 0x3BA90, symBinAddr: 0x10003DE44, symSize: 0x88 }
  - { offsetInCU: 0x28392, offset: 0x28392, size: 0x8, addend: 0x0, symName: __ZNSt3__116allocator_traitsINS_9allocatorIfEEE9constructB8ue170006IfJEvvEEvRS2_PT_DpOT0_, symObjAddr: 0x3BB18, symBinAddr: 0x10003DECC, symSize: 0x28 }
  - { offsetInCU: 0x283D2, offset: 0x283D2, size: 0x8, addend: 0x0, symName: __ZNSt3__16vectorIfNS_9allocatorIfEEE21_ConstructTransactionD1B8ue170006Ev, symObjAddr: 0x3BB40, symBinAddr: 0x10003DEF4, symSize: 0x78 }
  - { offsetInCU: 0x283FC, offset: 0x283FC, size: 0x8, addend: 0x0, symName: __ZNSt3__16vectorIfNS_9allocatorIfEEE21_ConstructTransactionC2B8ue170006ERS3_m, symObjAddr: 0x3BBB8, symBinAddr: 0x10003DF6C, symSize: 0x3D8 }
  - { offsetInCU: 0x28444, offset: 0x28444, size: 0x8, addend: 0x0, symName: __ZNKSt3__16vectorIfNS_9allocatorIfEEE19__annotate_increaseB8ue170006Em, symObjAddr: 0x3BF90, symBinAddr: 0x10003E344, symSize: 0x44C }
  - { offsetInCU: 0x28479, offset: 0x28479, size: 0x8, addend: 0x0, symName: __ZNKSt3__16vectorIfNS_9allocatorIfEEE4sizeB8ue170006Ev, symObjAddr: 0x3C3DC, symBinAddr: 0x10003E790, symSize: 0xF8 }
  - { offsetInCU: 0x2849F, offset: 0x2849F, size: 0x8, addend: 0x0, symName: __ZNSt3__16vectorIfNS_9allocatorIfEEE21_ConstructTransactionD2B8ue170006Ev, symObjAddr: 0x3C5FC, symBinAddr: 0x10003E9B0, symSize: 0x390 }
  - { offsetInCU: 0x284C9, offset: 0x284C9, size: 0x8, addend: 0x0, symName: __ZNKSt3__16vectorIfNS_9allocatorIfEEE17__annotate_shrinkB8ue170006Em, symObjAddr: 0x3C98C, symBinAddr: 0x10003ED40, symSize: 0x360 }
  - { offsetInCU: 0x284FE, offset: 0x284FE, size: 0x8, addend: 0x0, symName: __ZNSt3__128__exception_guard_exceptionsINS_6vectorIfNS_9allocatorIfEEE16__destroy_vectorEED2B8ue170006Ev, symObjAddr: 0x3CCEC, symBinAddr: 0x10003F0A0, symSize: 0x17C }
  - { offsetInCU: 0x28528, offset: 0x28528, size: 0x8, addend: 0x0, symName: __ZNSt3__16vectorIfNS_9allocatorIfEEE16__destroy_vectorclB8ue170006Ev, symObjAddr: 0x3CE68, symBinAddr: 0x10003F21C, symSize: 0x43C }
  - { offsetInCU: 0x2854E, offset: 0x2854E, size: 0x8, addend: 0x0, symName: __ZNSt3__16vectorIfNS_9allocatorIfEEE7__clearB8ue170006Ev, symObjAddr: 0x3D2A4, symBinAddr: 0x10003F658, symSize: 0xB0 }
  - { offsetInCU: 0x28574, offset: 0x28574, size: 0x8, addend: 0x0, symName: __ZNKSt3__16vectorIfNS_9allocatorIfEEE17__annotate_deleteB8ue170006Ev, symObjAddr: 0x3D354, symBinAddr: 0x10003F708, symSize: 0x370 }
  - { offsetInCU: 0x2859A, offset: 0x2859A, size: 0x8, addend: 0x0, symName: __ZNSt3__116allocator_traitsINS_9allocatorIfEEE10deallocateB8ue170006ERS2_Pfm, symObjAddr: 0x3D6C4, symBinAddr: 0x10003FA78, symSize: 0x34 }
  - { offsetInCU: 0x285DC, offset: 0x285DC, size: 0x8, addend: 0x0, symName: __ZNSt3__16vectorIfNS_9allocatorIfEEE22__base_destruct_at_endB8ue170006EPf, symObjAddr: 0x3D6F8, symBinAddr: 0x10003FAAC, symSize: 0x1FC }
  - { offsetInCU: 0x28620, offset: 0x28620, size: 0x8, addend: 0x0, symName: __ZNSt3__116allocator_traitsINS_9allocatorIfEEE7destroyB8ue170006IfvvEEvRS2_PT_, symObjAddr: 0x3D8F4, symBinAddr: 0x10003FCA8, symSize: 0x28 }
  - { offsetInCU: 0x2865B, offset: 0x2865B, size: 0x8, addend: 0x0, symName: __ZNSt3__19allocatorIfE10deallocateB8ue170006EPfm, symObjAddr: 0x3D950, symBinAddr: 0x10003FD04, symSize: 0x78 }
  - { offsetInCU: 0x2869D, offset: 0x2869D, size: 0x8, addend: 0x0, symName: __ZNSt3__16vectorIfNS_9allocatorIfEEEC2B8ue170006EOS3_, symObjAddr: 0x3D9C8, symBinAddr: 0x10003FD7C, symSize: 0x77C }
  - { offsetInCU: 0x286E0, offset: 0x286E0, size: 0x8, addend: 0x0, symName: __ZNSt3__117__compressed_pairIPfNS_9allocatorIfEEEC1B8ue170006IDnS3_EEOT_OT0_, symObjAddr: 0x3E144, symBinAddr: 0x1000404F8, symSize: 0x88 }
  - { offsetInCU: 0x28738, offset: 0x28738, size: 0x8, addend: 0x0, symName: __ZNSt3__117__compressed_pairIPfNS_9allocatorIfEEEC2B8ue170006IDnS3_EEOT_OT0_, symObjAddr: 0x3E1CC, symBinAddr: 0x100040580, symSize: 0x170 }
  - { offsetInCU: 0x28790, offset: 0x28790, size: 0x8, addend: 0x0, symName: __ZNSt3__122__compressed_pair_elemINS_9allocatorIfEELi1ELb1EEC2B8ue170006IS2_vEEOT_, symObjAddr: 0x3E33C, symBinAddr: 0x1000406F0, symSize: 0x58 }
  - { offsetInCU: 0x287D2, offset: 0x287D2, size: 0x8, addend: 0x0, symName: __ZNSt3__16vectorIfNS_9allocatorIfEEED2B8ue170006Ev, symObjAddr: 0x3E394, symBinAddr: 0x100040748, symSize: 0x294 }
  - { offsetInCU: 0x287FD, offset: 0x287FD, size: 0x8, addend: 0x0, symName: __ZNSt3__110unique_ptrIN12_GLOBAL__N_112RectTestCaseENS_14default_deleteIS2_EEEC2B8ue170006ILb1EvEEPS2_, symObjAddr: 0x3E628, symBinAddr: 0x1000409DC, symSize: 0x2B8 }
  - { offsetInCU: 0x28845, offset: 0x28845, size: 0x8, addend: 0x0, symName: __ZNSt3__117__compressed_pairIPN12_GLOBAL__N_112RectTestCaseENS_14default_deleteIS2_EEEC1B8ue170006IRS3_NS_16__value_init_tagEEEOT_OT0_, symObjAddr: 0x3E8E0, symBinAddr: 0x100040C94, symSize: 0x88 }
  - { offsetInCU: 0x2889D, offset: 0x2889D, size: 0x8, addend: 0x0, symName: __ZNSt3__117__compressed_pairIPN12_GLOBAL__N_112RectTestCaseENS_14default_deleteIS2_EEEC2B8ue170006IRS3_NS_16__value_init_tagEEEOT_OT0_, symObjAddr: 0x3E968, symBinAddr: 0x100040D1C, symSize: 0x140 }
  - { offsetInCU: 0x288F5, offset: 0x288F5, size: 0x8, addend: 0x0, symName: __ZNSt3__122__compressed_pair_elemIPN12_GLOBAL__N_112RectTestCaseELi0ELb0EEC2B8ue170006IRS3_vEEOT_, symObjAddr: 0x3EAA8, symBinAddr: 0x100040E5C, symSize: 0x144 }
  - { offsetInCU: 0x28937, offset: 0x28937, size: 0x8, addend: 0x0, symName: __ZNSt3__122__compressed_pair_elemINS_14default_deleteIN12_GLOBAL__N_112RectTestCaseEEELi1ELb1EEC2B8ue170006ENS_16__value_init_tagE, symObjAddr: 0x3EBEC, symBinAddr: 0x100040FA0, symSize: 0x54 }
  - { offsetInCU: 0x2896C, offset: 0x2896C, size: 0x8, addend: 0x0, symName: __ZNSt3__110unique_ptrIN12_GLOBAL__N_110ISTestCaseENS_14default_deleteIS2_EEEC2B8ue170006INS1_12RectTestCaseENS3_IS7_EEvvEEONS0_IT_T0_EE, symObjAddr: 0x3EC40, symBinAddr: 0x100040FF4, symSize: 0x320 }
  - { offsetInCU: 0x289BA, offset: 0x289BA, size: 0x8, addend: 0x0, symName: __ZNSt3__110unique_ptrIN12_GLOBAL__N_112RectTestCaseENS_14default_deleteIS2_EEE7releaseB8ue170006Ev, symObjAddr: 0x3EF60, symBinAddr: 0x100041314, symSize: 0x20C }
  - { offsetInCU: 0x289EF, offset: 0x289EF, size: 0x8, addend: 0x0, symName: __ZNSt3__110unique_ptrIN12_GLOBAL__N_112RectTestCaseENS_14default_deleteIS2_EEE11get_deleterB8ue170006Ev, symObjAddr: 0x3F16C, symBinAddr: 0x100041520, symSize: 0xDC }
  - { offsetInCU: 0x28A21, offset: 0x28A21, size: 0x8, addend: 0x0, symName: __ZNSt3__117__compressed_pairIPN12_GLOBAL__N_110ISTestCaseENS_14default_deleteIS2_EEEC1B8ue170006IPNS1_12RectTestCaseENS4_IS8_EEEEOT_OT0_, symObjAddr: 0x3F248, symBinAddr: 0x1000415FC, symSize: 0x88 }
  - { offsetInCU: 0x28A79, offset: 0x28A79, size: 0x8, addend: 0x0, symName: __ZNSt3__117__compressed_pairIPN12_GLOBAL__N_112RectTestCaseENS_14default_deleteIS2_EEE5firstB8ue170006Ev, symObjAddr: 0x3F2D0, symBinAddr: 0x100041684, symSize: 0x124 }
  - { offsetInCU: 0x28A9F, offset: 0x28A9F, size: 0x8, addend: 0x0, symName: __ZNSt3__122__compressed_pair_elemIPN12_GLOBAL__N_112RectTestCaseELi0ELb0EE5__getB8ue170006Ev, symObjAddr: 0x3F3F4, symBinAddr: 0x1000417A8, symSize: 0xAC }
  - { offsetInCU: 0x28AC5, offset: 0x28AC5, size: 0x8, addend: 0x0, symName: __ZNSt3__117__compressed_pairIPN12_GLOBAL__N_112RectTestCaseENS_14default_deleteIS2_EEE6secondB8ue170006Ev, symObjAddr: 0x3F4A0, symBinAddr: 0x100041854, symSize: 0x108 }
  - { offsetInCU: 0x28AEB, offset: 0x28AEB, size: 0x8, addend: 0x0, symName: __ZNSt3__122__compressed_pair_elemINS_14default_deleteIN12_GLOBAL__N_112RectTestCaseEEELi1ELb1EE5__getB8ue170006Ev, symObjAddr: 0x3F5A8, symBinAddr: 0x10004195C, symSize: 0x74 }
  - { offsetInCU: 0x28B11, offset: 0x28B11, size: 0x8, addend: 0x0, symName: __ZNSt3__117__compressed_pairIPN12_GLOBAL__N_110ISTestCaseENS_14default_deleteIS2_EEEC2B8ue170006IPNS1_12RectTestCaseENS4_IS8_EEEEOT_OT0_, symObjAddr: 0x3F61C, symBinAddr: 0x1000419D0, symSize: 0x170 }
  - { offsetInCU: 0x28B69, offset: 0x28B69, size: 0x8, addend: 0x0, symName: __ZNSt3__122__compressed_pair_elemIPN12_GLOBAL__N_110ISTestCaseELi0ELb0EEC2B8ue170006IPNS1_12RectTestCaseEvEEOT_, symObjAddr: 0x3F78C, symBinAddr: 0x100041B40, symSize: 0x184 }
  - { offsetInCU: 0x28BAB, offset: 0x28BAB, size: 0x8, addend: 0x0, symName: __ZNSt3__122__compressed_pair_elemINS_14default_deleteIN12_GLOBAL__N_110ISTestCaseEEELi1ELb1EEC2B8ue170006INS1_INS2_12RectTestCaseEEEvEEOT_, symObjAddr: 0x3F910, symBinAddr: 0x100041CC4, symSize: 0xBC }
  - { offsetInCU: 0x28BED, offset: 0x28BED, size: 0x8, addend: 0x0, symName: __ZNSt3__114default_deleteIN12_GLOBAL__N_110ISTestCaseEEC2B8ue170006INS1_12RectTestCaseEEERKNS0_IT_EEPNS_9enable_ifIXsr14is_convertibleIPS6_PS2_EE5valueEvE4typeE, symObjAddr: 0x3F9CC, symBinAddr: 0x100041D80, symSize: 0x5C }
  - { offsetInCU: 0x28C36, offset: 0x28C36, size: 0x8, addend: 0x0, symName: __ZNSt3__110unique_ptrIN12_GLOBAL__N_112RectTestCaseENS_14default_deleteIS2_EEED2B8ue170006Ev, symObjAddr: 0x3FA28, symBinAddr: 0x100041DDC, symSize: 0x7C }
  - { offsetInCU: 0x28C60, offset: 0x28C60, size: 0x8, addend: 0x0, symName: __ZNSt3__110unique_ptrIN12_GLOBAL__N_112RectTestCaseENS_14default_deleteIS2_EEE5resetB8ue170006EPS2_, symObjAddr: 0x3FAA4, symBinAddr: 0x100041E58, symSize: 0x2B0 }
  - { offsetInCU: 0x28CA4, offset: 0x28CA4, size: 0x8, addend: 0x0, symName: __ZNKSt3__114default_deleteIN12_GLOBAL__N_112RectTestCaseEEclB8ue170006EPS2_, symObjAddr: 0x3FD54, symBinAddr: 0x100042108, symSize: 0x1DC }
  - { offsetInCU: 0x28CD8, offset: 0x28CD8, size: 0x8, addend: 0x0, symName: __ZN12_GLOBAL__N_116GradientTestCaseC1Eii, symObjAddr: 0x3FF30, symBinAddr: 0x1000422E4, symSize: 0x88 }
  - { offsetInCU: 0x28D1E, offset: 0x28D1E, size: 0x8, addend: 0x0, symName: __ZNSt3__110unique_ptrIN12_GLOBAL__N_116GradientTestCaseENS_14default_deleteIS2_EEEC1B8ue170006ILb1EvEEPS2_, symObjAddr: 0x3FFB8, symBinAddr: 0x10004236C, symSize: 0x80 }
  - { offsetInCU: 0x28D61, offset: 0x28D61, size: 0x8, addend: 0x0, symName: __ZN12_GLOBAL__N_116GradientTestCaseC2Eii, symObjAddr: 0x40038, symBinAddr: 0x1000423EC, symSize: 0x26C }
  - { offsetInCU: 0x28DA7, offset: 0x28DA7, size: 0x8, addend: 0x0, symName: __ZN12_GLOBAL__N_116GradientTestCaseD1Ev, symObjAddr: 0x402A4, symBinAddr: 0x100042658, symSize: 0x78 }
  - { offsetInCU: 0x28DD3, offset: 0x28DD3, size: 0x8, addend: 0x0, symName: __ZN12_GLOBAL__N_116GradientTestCaseD0Ev, symObjAddr: 0x4031C, symBinAddr: 0x1000426D0, symSize: 0x74 }
  - { offsetInCU: 0x28DFF, offset: 0x28DFF, size: 0x8, addend: 0x0, symName: __ZNK12_GLOBAL__N_116GradientTestCase8generateERN3ppc6randomE, symObjAddr: 0x40390, symBinAddr: 0x100042744, symSize: 0x210C }
  - { offsetInCU: 0x28FFB, offset: 0x28FFB, size: 0x8, addend: 0x0, symName: __ZN12_GLOBAL__N_116GradientTestCaseD2Ev, symObjAddr: 0x4249C, symBinAddr: 0x100044850, symSize: 0x78 }
  - { offsetInCU: 0x2904B, offset: 0x2904B, size: 0x8, addend: 0x0, symName: __ZNSt3__125uniform_real_distributionIfEC1B8ue170006Eff, symObjAddr: 0x42514, symBinAddr: 0x1000448C8, symSize: 0x88 }
  - { offsetInCU: 0x29091, offset: 0x29091, size: 0x8, addend: 0x0, symName: __ZN3ppc6random9get_floatEff, symObjAddr: 0x4259C, symBinAddr: 0x100044950, symSize: 0x90 }
  - { offsetInCU: 0x290D3, offset: 0x290D3, size: 0x8, addend: 0x0, symName: __ZNK12_GLOBAL__N_116GradientTestCase16segment_gradientEiiiiiPKf, symObjAddr: 0x42684, symBinAddr: 0x100044A38, symSize: 0x309C }
  - { offsetInCU: 0x293EA, offset: 0x293EA, size: 0x8, addend: 0x0, symName: __ZNSt3__16vectorIfNS_9allocatorIfEEE4dataB8ue170006Ev, symObjAddr: 0x45720, symBinAddr: 0x100047AD4, symSize: 0xB0 }
  - { offsetInCU: 0x29410, offset: 0x29410, size: 0x8, addend: 0x0, symName: __ZNSt3__125uniform_real_distributionIfEC2B8ue170006Eff, symObjAddr: 0x457D0, symBinAddr: 0x100047B84, symSize: 0x88 }
  - { offsetInCU: 0x29456, offset: 0x29456, size: 0x8, addend: 0x0, symName: __ZNSt3__125uniform_real_distributionIfE10param_typeC1B8ue170006Eff, symObjAddr: 0x45858, symBinAddr: 0x100047C0C, symSize: 0x88 }
  - { offsetInCU: 0x2949C, offset: 0x2949C, size: 0x8, addend: 0x0, symName: __ZNSt3__125uniform_real_distributionIfE10param_typeC2B8ue170006Eff, symObjAddr: 0x458E0, symBinAddr: 0x100047C94, symSize: 0x160 }
  - { offsetInCU: 0x294E2, offset: 0x294E2, size: 0x8, addend: 0x0, symName: __ZN3ppc6random9get_floatEv, symObjAddr: 0x45A40, symBinAddr: 0x100047DF4, symSize: 0x100 }
  - { offsetInCU: 0x29516, offset: 0x29516, size: 0x8, addend: 0x0, symName: __ZNSt3__114numeric_limitsIdE3maxB8ue170006Ev, symObjAddr: 0x45B40, symBinAddr: 0x100047EF4, symSize: 0x14 }
  - { offsetInCU: 0x2952A, offset: 0x2952A, size: 0x8, addend: 0x0, symName: __ZNSt3__123__libcpp_numeric_limitsIdLb1EE3maxB8ue170006Ev, symObjAddr: 0x45B54, symBinAddr: 0x100047F08, symSize: 0xC }
  - { offsetInCU: 0x2953E, offset: 0x2953E, size: 0x8, addend: 0x0, symName: __ZNSt3__110unique_ptrIN12_GLOBAL__N_116GradientTestCaseENS_14default_deleteIS2_EEEC2B8ue170006ILb1EvEEPS2_, symObjAddr: 0x45B60, symBinAddr: 0x100047F14, symSize: 0x2B8 }
  - { offsetInCU: 0x29586, offset: 0x29586, size: 0x8, addend: 0x0, symName: __ZNSt3__117__compressed_pairIPN12_GLOBAL__N_116GradientTestCaseENS_14default_deleteIS2_EEEC1B8ue170006IRS3_NS_16__value_init_tagEEEOT_OT0_, symObjAddr: 0x45E18, symBinAddr: 0x1000481CC, symSize: 0x88 }
  - { offsetInCU: 0x295DE, offset: 0x295DE, size: 0x8, addend: 0x0, symName: __ZNSt3__117__compressed_pairIPN12_GLOBAL__N_116GradientTestCaseENS_14default_deleteIS2_EEEC2B8ue170006IRS3_NS_16__value_init_tagEEEOT_OT0_, symObjAddr: 0x45EA0, symBinAddr: 0x100048254, symSize: 0x140 }
  - { offsetInCU: 0x29636, offset: 0x29636, size: 0x8, addend: 0x0, symName: __ZNSt3__122__compressed_pair_elemIPN12_GLOBAL__N_116GradientTestCaseELi0ELb0EEC2B8ue170006IRS3_vEEOT_, symObjAddr: 0x45FE0, symBinAddr: 0x100048394, symSize: 0x144 }
  - { offsetInCU: 0x29678, offset: 0x29678, size: 0x8, addend: 0x0, symName: __ZNSt3__122__compressed_pair_elemINS_14default_deleteIN12_GLOBAL__N_116GradientTestCaseEEELi1ELb1EEC2B8ue170006ENS_16__value_init_tagE, symObjAddr: 0x46124, symBinAddr: 0x1000484D8, symSize: 0x54 }
  - { offsetInCU: 0x296AD, offset: 0x296AD, size: 0x8, addend: 0x0, symName: __ZNSt3__110unique_ptrIN12_GLOBAL__N_110ISTestCaseENS_14default_deleteIS2_EEEC2B8ue170006INS1_16GradientTestCaseENS3_IS7_EEvvEEONS0_IT_T0_EE, symObjAddr: 0x46178, symBinAddr: 0x10004852C, symSize: 0x320 }
  - { offsetInCU: 0x296FB, offset: 0x296FB, size: 0x8, addend: 0x0, symName: __ZNSt3__110unique_ptrIN12_GLOBAL__N_116GradientTestCaseENS_14default_deleteIS2_EEE7releaseB8ue170006Ev, symObjAddr: 0x46498, symBinAddr: 0x10004884C, symSize: 0x20C }
  - { offsetInCU: 0x29730, offset: 0x29730, size: 0x8, addend: 0x0, symName: __ZNSt3__110unique_ptrIN12_GLOBAL__N_116GradientTestCaseENS_14default_deleteIS2_EEE11get_deleterB8ue170006Ev, symObjAddr: 0x466A4, symBinAddr: 0x100048A58, symSize: 0xDC }
  - { offsetInCU: 0x29762, offset: 0x29762, size: 0x8, addend: 0x0, symName: __ZNSt3__117__compressed_pairIPN12_GLOBAL__N_110ISTestCaseENS_14default_deleteIS2_EEEC1B8ue170006IPNS1_16GradientTestCaseENS4_IS8_EEEEOT_OT0_, symObjAddr: 0x46780, symBinAddr: 0x100048B34, symSize: 0x88 }
  - { offsetInCU: 0x297BA, offset: 0x297BA, size: 0x8, addend: 0x0, symName: __ZNSt3__117__compressed_pairIPN12_GLOBAL__N_116GradientTestCaseENS_14default_deleteIS2_EEE5firstB8ue170006Ev, symObjAddr: 0x46808, symBinAddr: 0x100048BBC, symSize: 0x124 }
  - { offsetInCU: 0x297E0, offset: 0x297E0, size: 0x8, addend: 0x0, symName: __ZNSt3__122__compressed_pair_elemIPN12_GLOBAL__N_116GradientTestCaseELi0ELb0EE5__getB8ue170006Ev, symObjAddr: 0x4692C, symBinAddr: 0x100048CE0, symSize: 0xAC }
  - { offsetInCU: 0x29806, offset: 0x29806, size: 0x8, addend: 0x0, symName: __ZNSt3__117__compressed_pairIPN12_GLOBAL__N_116GradientTestCaseENS_14default_deleteIS2_EEE6secondB8ue170006Ev, symObjAddr: 0x469D8, symBinAddr: 0x100048D8C, symSize: 0x108 }
  - { offsetInCU: 0x2982C, offset: 0x2982C, size: 0x8, addend: 0x0, symName: __ZNSt3__122__compressed_pair_elemINS_14default_deleteIN12_GLOBAL__N_116GradientTestCaseEEELi1ELb1EE5__getB8ue170006Ev, symObjAddr: 0x46AE0, symBinAddr: 0x100048E94, symSize: 0x74 }
  - { offsetInCU: 0x29852, offset: 0x29852, size: 0x8, addend: 0x0, symName: __ZNSt3__117__compressed_pairIPN12_GLOBAL__N_110ISTestCaseENS_14default_deleteIS2_EEEC2B8ue170006IPNS1_16GradientTestCaseENS4_IS8_EEEEOT_OT0_, symObjAddr: 0x46B54, symBinAddr: 0x100048F08, symSize: 0x170 }
  - { offsetInCU: 0x298AA, offset: 0x298AA, size: 0x8, addend: 0x0, symName: __ZNSt3__122__compressed_pair_elemIPN12_GLOBAL__N_110ISTestCaseELi0ELb0EEC2B8ue170006IPNS1_16GradientTestCaseEvEEOT_, symObjAddr: 0x46CC4, symBinAddr: 0x100049078, symSize: 0x184 }
  - { offsetInCU: 0x298EC, offset: 0x298EC, size: 0x8, addend: 0x0, symName: __ZNSt3__122__compressed_pair_elemINS_14default_deleteIN12_GLOBAL__N_110ISTestCaseEEELi1ELb1EEC2B8ue170006INS1_INS2_16GradientTestCaseEEEvEEOT_, symObjAddr: 0x46E48, symBinAddr: 0x1000491FC, symSize: 0xBC }
  - { offsetInCU: 0x2992E, offset: 0x2992E, size: 0x8, addend: 0x0, symName: __ZNSt3__114default_deleteIN12_GLOBAL__N_110ISTestCaseEEC2B8ue170006INS1_16GradientTestCaseEEERKNS0_IT_EEPNS_9enable_ifIXsr14is_convertibleIPS6_PS2_EE5valueEvE4typeE, symObjAddr: 0x46F04, symBinAddr: 0x1000492B8, symSize: 0x5C }
  - { offsetInCU: 0x29977, offset: 0x29977, size: 0x8, addend: 0x0, symName: __ZNSt3__110unique_ptrIN12_GLOBAL__N_116GradientTestCaseENS_14default_deleteIS2_EEED2B8ue170006Ev, symObjAddr: 0x46F60, symBinAddr: 0x100049314, symSize: 0x7C }
  - { offsetInCU: 0x299A1, offset: 0x299A1, size: 0x8, addend: 0x0, symName: __ZNSt3__110unique_ptrIN12_GLOBAL__N_116GradientTestCaseENS_14default_deleteIS2_EEE5resetB8ue170006EPS2_, symObjAddr: 0x46FDC, symBinAddr: 0x100049390, symSize: 0x2B0 }
  - { offsetInCU: 0x299E5, offset: 0x299E5, size: 0x8, addend: 0x0, symName: __ZNKSt3__114default_deleteIN12_GLOBAL__N_116GradientTestCaseEEclB8ue170006EPS2_, symObjAddr: 0x4728C, symBinAddr: 0x100049640, symSize: 0x1DC }
  - { offsetInCU: 0x29A19, offset: 0x29A19, size: 0x8, addend: 0x0, symName: __ZN12_GLOBAL__N_115VoronoiTestCaseC1EiibiffNS_4RectE, symObjAddr: 0x47468, symBinAddr: 0x10004981C, symSize: 0x468 }
  - { offsetInCU: 0x29AB7, offset: 0x29AB7, size: 0x8, addend: 0x0, symName: __ZNSt3__110unique_ptrIN12_GLOBAL__N_115VoronoiTestCaseENS_14default_deleteIS2_EEEC1B8ue170006ILb1EvEEPS2_, symObjAddr: 0x478D0, symBinAddr: 0x100049C84, symSize: 0x80 }
  - { offsetInCU: 0x29AFA, offset: 0x29AFA, size: 0x8, addend: 0x0, symName: __ZN12_GLOBAL__N_115VoronoiTestCaseC2EiibiffNS_4RectE, symObjAddr: 0x47950, symBinAddr: 0x100049D04, symSize: 0x774 }
  - { offsetInCU: 0x29B98, offset: 0x29B98, size: 0x8, addend: 0x0, symName: __ZN12_GLOBAL__N_115VoronoiTestCaseD1Ev, symObjAddr: 0x480C4, symBinAddr: 0x10004A478, symSize: 0x78 }
  - { offsetInCU: 0x29BC5, offset: 0x29BC5, size: 0x8, addend: 0x0, symName: __ZN12_GLOBAL__N_115VoronoiTestCaseD0Ev, symObjAddr: 0x4813C, symBinAddr: 0x10004A4F0, symSize: 0x74 }
  - { offsetInCU: 0x29BF2, offset: 0x29BF2, size: 0x8, addend: 0x0, symName: __ZNK12_GLOBAL__N_115VoronoiTestCase8generateERN3ppc6randomE, symObjAddr: 0x481B0, symBinAddr: 0x10004A564, symSize: 0x1118 }
  - { offsetInCU: 0x29C4F, offset: 0x29C4F, size: 0x8, addend: 0x0, symName: __ZN12_GLOBAL__N_115VoronoiTestCaseD2Ev, symObjAddr: 0x492C8, symBinAddr: 0x10004B67C, symSize: 0x78 }
  - { offsetInCU: 0x29C7C, offset: 0x29C7C, size: 0x8, addend: 0x0, symName: __ZNK12_GLOBAL__N_115VoronoiTestCase16generate_voronoiERN3ppc6randomE, symObjAddr: 0x49340, symBinAddr: 0x10004B6F4, symSize: 0x3BE0 }
  - { offsetInCU: 0x29E42, offset: 0x29E42, size: 0x8, addend: 0x0, symName: __ZNSt3__16vectorIfNS_9allocatorIfEEEC1EmRKf, symObjAddr: 0x4E320, symBinAddr: 0x1000506D4, symSize: 0x88 }
  - { offsetInCU: 0x29E8C, offset: 0x29E8C, size: 0x8, addend: 0x0, symName: __ZNSt3__16vectorIiNS_9allocatorIiEEEC1Em, symObjAddr: 0x4E3A8, symBinAddr: 0x10005075C, symSize: 0x80 }
  - { offsetInCU: 0x29EC7, offset: 0x29EC7, size: 0x8, addend: 0x0, symName: __ZNSt3__16vectorIiNS_9allocatorIiEEEixB8ue170006Em, symObjAddr: 0x4E428, symBinAddr: 0x1000507DC, symSize: 0x1CC }
  - { offsetInCU: 0x29EFE, offset: 0x29EFE, size: 0x8, addend: 0x0, symName: __ZNK12_GLOBAL__N_115VoronoiTestCase11offset_rectERN3ppc6randomEPf, symObjAddr: 0x4F098, symBinAddr: 0x10005144C, symSize: 0x27D0 }
  - { offsetInCU: 0x2A084, offset: 0x2A084, size: 0x8, addend: 0x0, symName: __ZNSt3__16vectorIiNS_9allocatorIiEEED1B8ue170006Ev, symObjAddr: 0x51868, symBinAddr: 0x100053C1C, symSize: 0x78 }
  - { offsetInCU: 0x2A0AE, offset: 0x2A0AE, size: 0x8, addend: 0x0, symName: __ZNSt3__16vectorIfNS_9allocatorIfEEEC2EmRKf, symObjAddr: 0x518E0, symBinAddr: 0x100053C94, symSize: 0x574 }
  - { offsetInCU: 0x2A114, offset: 0x2A114, size: 0x8, addend: 0x0, symName: __ZNSt3__16vectorIfNS_9allocatorIfEEE18__construct_at_endEmRKf, symObjAddr: 0x51E54, symBinAddr: 0x100054208, symSize: 0x5F4 }
  - { offsetInCU: 0x2A19F, offset: 0x2A19F, size: 0x8, addend: 0x0, symName: __ZNSt3__116allocator_traitsINS_9allocatorIfEEE9constructB8ue170006IfJRKfEvvEEvRS2_PT_DpOT0_, symObjAddr: 0x52448, symBinAddr: 0x1000547FC, symSize: 0x80 }
  - { offsetInCU: 0x2A1F4, offset: 0x2A1F4, size: 0x8, addend: 0x0, symName: __ZNSt3__16vectorIiNS_9allocatorIiEEEC2Em, symObjAddr: 0x526A0, symBinAddr: 0x100054A54, symSize: 0x51C }
  - { offsetInCU: 0x2A24A, offset: 0x2A24A, size: 0x8, addend: 0x0, symName: __ZNSt3__117__compressed_pairIPiNS_9allocatorIiEEEC1B8ue170006IDnNS_18__default_init_tagEEEOT_OT0_, symObjAddr: 0x52BBC, symBinAddr: 0x100054F70, symSize: 0x88 }
  - { offsetInCU: 0x2A2A2, offset: 0x2A2A2, size: 0x8, addend: 0x0, symName: __ZNSt3__16vectorIiNS_9allocatorIiEEE16__destroy_vectorC1B8ue170006ERS3_, symObjAddr: 0x52F00, symBinAddr: 0x1000552B4, symSize: 0x80 }
  - { offsetInCU: 0x2A2DB, offset: 0x2A2DB, size: 0x8, addend: 0x0, symName: __ZNSt3__16vectorIiNS_9allocatorIiEEE11__vallocateB8ue170006Em, symObjAddr: 0x52F80, symBinAddr: 0x100055334, symSize: 0x5E8 }
  - { offsetInCU: 0x2A325, offset: 0x2A325, size: 0x8, addend: 0x0, symName: __ZNSt3__16vectorIiNS_9allocatorIiEEE18__construct_at_endEm, symObjAddr: 0x53568, symBinAddr: 0x10005591C, symSize: 0x5A0 }
  - { offsetInCU: 0x2A3A0, offset: 0x2A3A0, size: 0x8, addend: 0x0, symName: __ZNSt3__128__exception_guard_exceptionsINS_6vectorIiNS_9allocatorIiEEE16__destroy_vectorEE10__completeB8ue170006Ev, symObjAddr: 0x53B08, symBinAddr: 0x100055EBC, symSize: 0xD8 }
  - { offsetInCU: 0x2A3C6, offset: 0x2A3C6, size: 0x8, addend: 0x0, symName: __ZNSt3__128__exception_guard_exceptionsINS_6vectorIiNS_9allocatorIiEEE16__destroy_vectorEED1B8ue170006Ev, symObjAddr: 0x53BE0, symBinAddr: 0x100055F94, symSize: 0x78 }
  - { offsetInCU: 0x2A3F0, offset: 0x2A3F0, size: 0x8, addend: 0x0, symName: __ZNSt3__117__compressed_pairIPiNS_9allocatorIiEEEC2B8ue170006IDnNS_18__default_init_tagEEEOT_OT0_, symObjAddr: 0x53C58, symBinAddr: 0x10005600C, symSize: 0x140 }
  - { offsetInCU: 0x2A448, offset: 0x2A448, size: 0x8, addend: 0x0, symName: __ZNSt3__122__compressed_pair_elemIPiLi0ELb0EEC2B8ue170006IDnvEEOT_, symObjAddr: 0x53D98, symBinAddr: 0x10005614C, symSize: 0xBC }
  - { offsetInCU: 0x2A48A, offset: 0x2A48A, size: 0x8, addend: 0x0, symName: __ZNSt3__122__compressed_pair_elemINS_9allocatorIiEELi1ELb1EEC2B8ue170006ENS_18__default_init_tagE, symObjAddr: 0x53E54, symBinAddr: 0x100056208, symSize: 0x84 }
  - { offsetInCU: 0x2A4BF, offset: 0x2A4BF, size: 0x8, addend: 0x0, symName: __ZNSt3__19allocatorIiEC2B8ue170006Ev, symObjAddr: 0x53ED8, symBinAddr: 0x10005628C, symSize: 0x84 }
  - { offsetInCU: 0x2A4E9, offset: 0x2A4E9, size: 0x8, addend: 0x0, symName: __ZNSt3__116__non_trivial_ifILb1ENS_9allocatorIiEEEC2B8ue170006Ev, symObjAddr: 0x53F5C, symBinAddr: 0x100056310, symSize: 0x54 }
  - { offsetInCU: 0x2A513, offset: 0x2A513, size: 0x8, addend: 0x0, symName: __ZNSt3__128__exception_guard_exceptionsINS_6vectorIiNS_9allocatorIiEEE16__destroy_vectorEEC1B8ue170006ES5_, symObjAddr: 0x53FB0, symBinAddr: 0x100056364, symSize: 0x28C }
  - { offsetInCU: 0x2A550, offset: 0x2A550, size: 0x8, addend: 0x0, symName: __ZNSt3__128__exception_guard_exceptionsINS_6vectorIiNS_9allocatorIiEEE16__destroy_vectorEEC2B8ue170006ES5_, symObjAddr: 0x5423C, symBinAddr: 0x1000565F0, symSize: 0x2BC }
  - { offsetInCU: 0x2A58D, offset: 0x2A58D, size: 0x8, addend: 0x0, symName: __ZNSt3__16vectorIiNS_9allocatorIiEEE16__destroy_vectorC2B8ue170006ERS3_, symObjAddr: 0x544F8, symBinAddr: 0x1000568AC, symSize: 0x108 }
  - { offsetInCU: 0x2A5C6, offset: 0x2A5C6, size: 0x8, addend: 0x0, symName: __ZNKSt3__16vectorIiNS_9allocatorIiEEE8max_sizeEv, symObjAddr: 0x54600, symBinAddr: 0x1000569B4, symSize: 0x3B8 }
  - { offsetInCU: 0x2A5EF, offset: 0x2A5EF, size: 0x8, addend: 0x0, symName: __ZNKSt3__16vectorIiNS_9allocatorIiEEE20__throw_length_errorB8ue170006Ev, symObjAddr: 0x549B8, symBinAddr: 0x100056D6C, symSize: 0x80 }
  - { offsetInCU: 0x2A615, offset: 0x2A615, size: 0x8, addend: 0x0, symName: __ZNSt3__16vectorIiNS_9allocatorIiEEE7__allocB8ue170006Ev, symObjAddr: 0x54CC4, symBinAddr: 0x100057078, symSize: 0xE4 }
  - { offsetInCU: 0x2A63B, offset: 0x2A63B, size: 0x8, addend: 0x0, symName: __ZNSt3__16vectorIiNS_9allocatorIiEEE9__end_capB8ue170006Ev, symObjAddr: 0x54DA8, symBinAddr: 0x10005715C, symSize: 0x100 }
  - { offsetInCU: 0x2A661, offset: 0x2A661, size: 0x8, addend: 0x0, symName: __ZNKSt3__16vectorIiNS_9allocatorIiEEE14__annotate_newB8ue170006Em, symObjAddr: 0x54EA8, symBinAddr: 0x10005725C, symSize: 0x360 }
  - { offsetInCU: 0x2A6A1, offset: 0x2A6A1, size: 0x8, addend: 0x0, symName: __ZNSt3__116allocator_traitsINS_9allocatorIiEEE8max_sizeB8ue170006IS2_vvEEmRKS2_, symObjAddr: 0x55208, symBinAddr: 0x1000575BC, symSize: 0x54 }
  - { offsetInCU: 0x2A6CD, offset: 0x2A6CD, size: 0x8, addend: 0x0, symName: __ZNKSt3__16vectorIiNS_9allocatorIiEEE7__allocB8ue170006Ev, symObjAddr: 0x5525C, symBinAddr: 0x100057610, symSize: 0xE4 }
  - { offsetInCU: 0x2A6F3, offset: 0x2A6F3, size: 0x8, addend: 0x0, symName: __ZNKSt3__117__compressed_pairIPiNS_9allocatorIiEEE6secondB8ue170006Ev, symObjAddr: 0x55340, symBinAddr: 0x1000576F4, symSize: 0x108 }
  - { offsetInCU: 0x2A719, offset: 0x2A719, size: 0x8, addend: 0x0, symName: __ZNKSt3__122__compressed_pair_elemINS_9allocatorIiEELi1ELb1EE5__getB8ue170006Ev, symObjAddr: 0x55448, symBinAddr: 0x1000577FC, symSize: 0x74 }
  - { offsetInCU: 0x2A73F, offset: 0x2A73F, size: 0x8, addend: 0x0, symName: __ZNSt3__19allocatorIiE8allocateB8ue170006Em, symObjAddr: 0x554BC, symBinAddr: 0x100057870, symSize: 0xCC }
  - { offsetInCU: 0x2A773, offset: 0x2A773, size: 0x8, addend: 0x0, symName: __ZNSt3__117__compressed_pairIPiNS_9allocatorIiEEE6secondB8ue170006Ev, symObjAddr: 0x55588, symBinAddr: 0x10005793C, symSize: 0x108 }
  - { offsetInCU: 0x2A799, offset: 0x2A799, size: 0x8, addend: 0x0, symName: __ZNSt3__122__compressed_pair_elemINS_9allocatorIiEELi1ELb1EE5__getB8ue170006Ev, symObjAddr: 0x55690, symBinAddr: 0x100057A44, symSize: 0x74 }
  - { offsetInCU: 0x2A7BF, offset: 0x2A7BF, size: 0x8, addend: 0x0, symName: __ZNSt3__117__compressed_pairIPiNS_9allocatorIiEEE5firstB8ue170006Ev, symObjAddr: 0x55704, symBinAddr: 0x100057AB8, symSize: 0x124 }
  - { offsetInCU: 0x2A7E5, offset: 0x2A7E5, size: 0x8, addend: 0x0, symName: __ZNSt3__122__compressed_pair_elemIPiLi0ELb0EE5__getB8ue170006Ev, symObjAddr: 0x55828, symBinAddr: 0x100057BDC, symSize: 0xAC }
  - { offsetInCU: 0x2A80B, offset: 0x2A80B, size: 0x8, addend: 0x0, symName: __ZNKSt3__16vectorIiNS_9allocatorIiEEE31__annotate_contiguous_containerEPKvS5_S5_S5_, symObjAddr: 0x558D4, symBinAddr: 0x100057C88, symSize: 0x9C }
  - { offsetInCU: 0x2A86D, offset: 0x2A86D, size: 0x8, addend: 0x0, symName: __ZNKSt3__16vectorIiNS_9allocatorIiEEE4dataB8ue170006Ev, symObjAddr: 0x55970, symBinAddr: 0x100057D24, symSize: 0xB0 }
  - { offsetInCU: 0x2A893, offset: 0x2A893, size: 0x8, addend: 0x0, symName: __ZNKSt3__16vectorIiNS_9allocatorIiEEE8capacityB8ue170006Ev, symObjAddr: 0x55A20, symBinAddr: 0x100057DD4, symSize: 0x144 }
  - { offsetInCU: 0x2A8B9, offset: 0x2A8B9, size: 0x8, addend: 0x0, symName: __ZNKSt3__16vectorIiNS_9allocatorIiEEE9__end_capB8ue170006Ev, symObjAddr: 0x55B78, symBinAddr: 0x100057F2C, symSize: 0x100 }
  - { offsetInCU: 0x2A8DF, offset: 0x2A8DF, size: 0x8, addend: 0x0, symName: __ZNKSt3__117__compressed_pairIPiNS_9allocatorIiEEE5firstB8ue170006Ev, symObjAddr: 0x55C78, symBinAddr: 0x10005802C, symSize: 0x124 }
  - { offsetInCU: 0x2A905, offset: 0x2A905, size: 0x8, addend: 0x0, symName: __ZNKSt3__122__compressed_pair_elemIPiLi0ELb0EE5__getB8ue170006Ev, symObjAddr: 0x55D9C, symBinAddr: 0x100058150, symSize: 0xAC }
  - { offsetInCU: 0x2A946, offset: 0x2A946, size: 0x8, addend: 0x0, symName: __ZNSt3__16vectorIiNS_9allocatorIiEEE21_ConstructTransactionC1B8ue170006ERS3_m, symObjAddr: 0x55E48, symBinAddr: 0x1000581FC, symSize: 0x88 }
  - { offsetInCU: 0x2A98E, offset: 0x2A98E, size: 0x8, addend: 0x0, symName: __ZNSt3__116allocator_traitsINS_9allocatorIiEEE9constructB8ue170006IiJEvvEEvRS2_PT_DpOT0_, symObjAddr: 0x55ED0, symBinAddr: 0x100058284, symSize: 0x28 }
  - { offsetInCU: 0x2A9CE, offset: 0x2A9CE, size: 0x8, addend: 0x0, symName: __ZNSt3__16vectorIiNS_9allocatorIiEEE21_ConstructTransactionD1B8ue170006Ev, symObjAddr: 0x55EF8, symBinAddr: 0x1000582AC, symSize: 0x78 }
  - { offsetInCU: 0x2A9F8, offset: 0x2A9F8, size: 0x8, addend: 0x0, symName: __ZNSt3__16vectorIiNS_9allocatorIiEEE21_ConstructTransactionC2B8ue170006ERS3_m, symObjAddr: 0x55F70, symBinAddr: 0x100058324, symSize: 0x3D8 }
  - { offsetInCU: 0x2AA40, offset: 0x2AA40, size: 0x8, addend: 0x0, symName: __ZNKSt3__16vectorIiNS_9allocatorIiEEE19__annotate_increaseB8ue170006Em, symObjAddr: 0x56348, symBinAddr: 0x1000586FC, symSize: 0x44C }
  - { offsetInCU: 0x2AA75, offset: 0x2AA75, size: 0x8, addend: 0x0, symName: __ZNKSt3__16vectorIiNS_9allocatorIiEEE4sizeB8ue170006Ev, symObjAddr: 0x56794, symBinAddr: 0x100058B48, symSize: 0xF8 }
  - { offsetInCU: 0x2AA9B, offset: 0x2AA9B, size: 0x8, addend: 0x0, symName: __ZNSt3__16vectorIiNS_9allocatorIiEEE21_ConstructTransactionD2B8ue170006Ev, symObjAddr: 0x569B0, symBinAddr: 0x100058D64, symSize: 0x390 }
  - { offsetInCU: 0x2AAC5, offset: 0x2AAC5, size: 0x8, addend: 0x0, symName: __ZNKSt3__16vectorIiNS_9allocatorIiEEE17__annotate_shrinkB8ue170006Em, symObjAddr: 0x56D40, symBinAddr: 0x1000590F4, symSize: 0x360 }
  - { offsetInCU: 0x2AAFA, offset: 0x2AAFA, size: 0x8, addend: 0x0, symName: __ZNSt3__128__exception_guard_exceptionsINS_6vectorIiNS_9allocatorIiEEE16__destroy_vectorEED2B8ue170006Ev, symObjAddr: 0x570A0, symBinAddr: 0x100059454, symSize: 0x17C }
  - { offsetInCU: 0x2AB24, offset: 0x2AB24, size: 0x8, addend: 0x0, symName: __ZNSt3__16vectorIiNS_9allocatorIiEEE16__destroy_vectorclB8ue170006Ev, symObjAddr: 0x5721C, symBinAddr: 0x1000595D0, symSize: 0x43C }
  - { offsetInCU: 0x2AB4A, offset: 0x2AB4A, size: 0x8, addend: 0x0, symName: __ZNSt3__16vectorIiNS_9allocatorIiEEE7__clearB8ue170006Ev, symObjAddr: 0x57658, symBinAddr: 0x100059A0C, symSize: 0xB0 }
  - { offsetInCU: 0x2AB70, offset: 0x2AB70, size: 0x8, addend: 0x0, symName: __ZNKSt3__16vectorIiNS_9allocatorIiEEE17__annotate_deleteB8ue170006Ev, symObjAddr: 0x57708, symBinAddr: 0x100059ABC, symSize: 0x370 }
  - { offsetInCU: 0x2AB96, offset: 0x2AB96, size: 0x8, addend: 0x0, symName: __ZNSt3__116allocator_traitsINS_9allocatorIiEEE10deallocateB8ue170006ERS2_Pim, symObjAddr: 0x57A78, symBinAddr: 0x100059E2C, symSize: 0x34 }
  - { offsetInCU: 0x2ABD8, offset: 0x2ABD8, size: 0x8, addend: 0x0, symName: __ZNSt3__16vectorIiNS_9allocatorIiEEE22__base_destruct_at_endB8ue170006EPi, symObjAddr: 0x57AAC, symBinAddr: 0x100059E60, symSize: 0x1FC }
  - { offsetInCU: 0x2AC1C, offset: 0x2AC1C, size: 0x8, addend: 0x0, symName: __ZNSt3__116allocator_traitsINS_9allocatorIiEEE7destroyB8ue170006IivvEEvRS2_PT_, symObjAddr: 0x57CA8, symBinAddr: 0x10005A05C, symSize: 0x28 }
  - { offsetInCU: 0x2AC57, offset: 0x2AC57, size: 0x8, addend: 0x0, symName: __ZNSt3__19allocatorIiE10deallocateB8ue170006EPim, symObjAddr: 0x57D04, symBinAddr: 0x10005A0B8, symSize: 0x78 }
  - { offsetInCU: 0x2AC99, offset: 0x2AC99, size: 0x8, addend: 0x0, symName: __ZNSt3__16vectorIiNS_9allocatorIiEEED2B8ue170006Ev, symObjAddr: 0x57D7C, symBinAddr: 0x10005A130, symSize: 0x294 }
  - { offsetInCU: 0x2ACC4, offset: 0x2ACC4, size: 0x8, addend: 0x0, symName: __ZNSt3__110unique_ptrIN12_GLOBAL__N_115VoronoiTestCaseENS_14default_deleteIS2_EEEC2B8ue170006ILb1EvEEPS2_, symObjAddr: 0x582EC, symBinAddr: 0x10005A6A0, symSize: 0x2B8 }
  - { offsetInCU: 0x2AD0C, offset: 0x2AD0C, size: 0x8, addend: 0x0, symName: __ZNSt3__117__compressed_pairIPN12_GLOBAL__N_115VoronoiTestCaseENS_14default_deleteIS2_EEEC1B8ue170006IRS3_NS_16__value_init_tagEEEOT_OT0_, symObjAddr: 0x585A4, symBinAddr: 0x10005A958, symSize: 0x88 }
  - { offsetInCU: 0x2AD64, offset: 0x2AD64, size: 0x8, addend: 0x0, symName: __ZNSt3__117__compressed_pairIPN12_GLOBAL__N_115VoronoiTestCaseENS_14default_deleteIS2_EEEC2B8ue170006IRS3_NS_16__value_init_tagEEEOT_OT0_, symObjAddr: 0x5862C, symBinAddr: 0x10005A9E0, symSize: 0x140 }
  - { offsetInCU: 0x2ADBC, offset: 0x2ADBC, size: 0x8, addend: 0x0, symName: __ZNSt3__122__compressed_pair_elemIPN12_GLOBAL__N_115VoronoiTestCaseELi0ELb0EEC2B8ue170006IRS3_vEEOT_, symObjAddr: 0x5876C, symBinAddr: 0x10005AB20, symSize: 0x144 }
  - { offsetInCU: 0x2ADFE, offset: 0x2ADFE, size: 0x8, addend: 0x0, symName: __ZNSt3__122__compressed_pair_elemINS_14default_deleteIN12_GLOBAL__N_115VoronoiTestCaseEEELi1ELb1EEC2B8ue170006ENS_16__value_init_tagE, symObjAddr: 0x588B0, symBinAddr: 0x10005AC64, symSize: 0x54 }
  - { offsetInCU: 0x2AE33, offset: 0x2AE33, size: 0x8, addend: 0x0, symName: __ZNSt3__110unique_ptrIN12_GLOBAL__N_110ISTestCaseENS_14default_deleteIS2_EEEC2B8ue170006INS1_15VoronoiTestCaseENS3_IS7_EEvvEEONS0_IT_T0_EE, symObjAddr: 0x58904, symBinAddr: 0x10005ACB8, symSize: 0x320 }
  - { offsetInCU: 0x2AE81, offset: 0x2AE81, size: 0x8, addend: 0x0, symName: __ZNSt3__110unique_ptrIN12_GLOBAL__N_115VoronoiTestCaseENS_14default_deleteIS2_EEE7releaseB8ue170006Ev, symObjAddr: 0x58C24, symBinAddr: 0x10005AFD8, symSize: 0x20C }
  - { offsetInCU: 0x2AEB6, offset: 0x2AEB6, size: 0x8, addend: 0x0, symName: __ZNSt3__110unique_ptrIN12_GLOBAL__N_115VoronoiTestCaseENS_14default_deleteIS2_EEE11get_deleterB8ue170006Ev, symObjAddr: 0x58E30, symBinAddr: 0x10005B1E4, symSize: 0xDC }
  - { offsetInCU: 0x2AEE8, offset: 0x2AEE8, size: 0x8, addend: 0x0, symName: __ZNSt3__117__compressed_pairIPN12_GLOBAL__N_110ISTestCaseENS_14default_deleteIS2_EEEC1B8ue170006IPNS1_15VoronoiTestCaseENS4_IS8_EEEEOT_OT0_, symObjAddr: 0x58F0C, symBinAddr: 0x10005B2C0, symSize: 0x88 }
  - { offsetInCU: 0x2AF40, offset: 0x2AF40, size: 0x8, addend: 0x0, symName: __ZNSt3__117__compressed_pairIPN12_GLOBAL__N_115VoronoiTestCaseENS_14default_deleteIS2_EEE5firstB8ue170006Ev, symObjAddr: 0x58F94, symBinAddr: 0x10005B348, symSize: 0x124 }
  - { offsetInCU: 0x2AF66, offset: 0x2AF66, size: 0x8, addend: 0x0, symName: __ZNSt3__122__compressed_pair_elemIPN12_GLOBAL__N_115VoronoiTestCaseELi0ELb0EE5__getB8ue170006Ev, symObjAddr: 0x590B8, symBinAddr: 0x10005B46C, symSize: 0xAC }
  - { offsetInCU: 0x2AF8C, offset: 0x2AF8C, size: 0x8, addend: 0x0, symName: __ZNSt3__117__compressed_pairIPN12_GLOBAL__N_115VoronoiTestCaseENS_14default_deleteIS2_EEE6secondB8ue170006Ev, symObjAddr: 0x59164, symBinAddr: 0x10005B518, symSize: 0x108 }
  - { offsetInCU: 0x2AFB2, offset: 0x2AFB2, size: 0x8, addend: 0x0, symName: __ZNSt3__122__compressed_pair_elemINS_14default_deleteIN12_GLOBAL__N_115VoronoiTestCaseEEELi1ELb1EE5__getB8ue170006Ev, symObjAddr: 0x5926C, symBinAddr: 0x10005B620, symSize: 0x74 }
  - { offsetInCU: 0x2AFD8, offset: 0x2AFD8, size: 0x8, addend: 0x0, symName: __ZNSt3__117__compressed_pairIPN12_GLOBAL__N_110ISTestCaseENS_14default_deleteIS2_EEEC2B8ue170006IPNS1_15VoronoiTestCaseENS4_IS8_EEEEOT_OT0_, symObjAddr: 0x592E0, symBinAddr: 0x10005B694, symSize: 0x170 }
  - { offsetInCU: 0x2B030, offset: 0x2B030, size: 0x8, addend: 0x0, symName: __ZNSt3__122__compressed_pair_elemIPN12_GLOBAL__N_110ISTestCaseELi0ELb0EEC2B8ue170006IPNS1_15VoronoiTestCaseEvEEOT_, symObjAddr: 0x59450, symBinAddr: 0x10005B804, symSize: 0x184 }
  - { offsetInCU: 0x2B072, offset: 0x2B072, size: 0x8, addend: 0x0, symName: __ZNSt3__122__compressed_pair_elemINS_14default_deleteIN12_GLOBAL__N_110ISTestCaseEEELi1ELb1EEC2B8ue170006INS1_INS2_15VoronoiTestCaseEEEvEEOT_, symObjAddr: 0x595D4, symBinAddr: 0x10005B988, symSize: 0xBC }
  - { offsetInCU: 0x2B0B4, offset: 0x2B0B4, size: 0x8, addend: 0x0, symName: __ZNSt3__114default_deleteIN12_GLOBAL__N_110ISTestCaseEEC2B8ue170006INS1_15VoronoiTestCaseEEERKNS0_IT_EEPNS_9enable_ifIXsr14is_convertibleIPS6_PS2_EE5valueEvE4typeE, symObjAddr: 0x59690, symBinAddr: 0x10005BA44, symSize: 0x5C }
  - { offsetInCU: 0x2B0FD, offset: 0x2B0FD, size: 0x8, addend: 0x0, symName: __ZNSt3__110unique_ptrIN12_GLOBAL__N_115VoronoiTestCaseENS_14default_deleteIS2_EEED2B8ue170006Ev, symObjAddr: 0x596EC, symBinAddr: 0x10005BAA0, symSize: 0x7C }
  - { offsetInCU: 0x2B127, offset: 0x2B127, size: 0x8, addend: 0x0, symName: __ZNSt3__110unique_ptrIN12_GLOBAL__N_115VoronoiTestCaseENS_14default_deleteIS2_EEE5resetB8ue170006EPS2_, symObjAddr: 0x59768, symBinAddr: 0x10005BB1C, symSize: 0x2B0 }
  - { offsetInCU: 0x2B16B, offset: 0x2B16B, size: 0x8, addend: 0x0, symName: __ZNKSt3__114default_deleteIN12_GLOBAL__N_115VoronoiTestCaseEEclB8ue170006EPS2_, symObjAddr: 0x59A18, symBinAddr: 0x10005BDCC, symSize: 0x1DC }
  - { offsetInCU: 0x2B19F, offset: 0x2B19F, size: 0x8, addend: 0x0, symName: __ZN12_GLOBAL__N_19FixedTestC1EiiRNSt3__113basic_istreamIcNS1_11char_traitsIcEEEE, symObjAddr: 0x59BF4, symBinAddr: 0x10005BFA8, symSize: 0x90 }
  - { offsetInCU: 0x2B1F6, offset: 0x2B1F6, size: 0x8, addend: 0x0, symName: __ZNSt3__110unique_ptrIN12_GLOBAL__N_19FixedTestENS_14default_deleteIS2_EEEC1B8ue170006ILb1EvEEPS2_, symObjAddr: 0x59C84, symBinAddr: 0x10005C038, symSize: 0x80 }
  - { offsetInCU: 0x2B239, offset: 0x2B239, size: 0x8, addend: 0x0, symName: __ZN12_GLOBAL__N_19FixedTestC2EiiRNSt3__113basic_istreamIcNS1_11char_traitsIcEEEE, symObjAddr: 0x59D04, symBinAddr: 0x10005C0B8, symSize: 0x2388 }
  - { offsetInCU: 0x2B34A, offset: 0x2B34A, size: 0x8, addend: 0x0, symName: __ZN12_GLOBAL__N_19FixedTestD1Ev, symObjAddr: 0x5C08C, symBinAddr: 0x10005E440, symSize: 0x78 }
  - { offsetInCU: 0x2B377, offset: 0x2B377, size: 0x8, addend: 0x0, symName: __ZN12_GLOBAL__N_19FixedTestD0Ev, symObjAddr: 0x5C104, symBinAddr: 0x10005E4B8, symSize: 0x74 }
  - { offsetInCU: 0x2B3A4, offset: 0x2B3A4, size: 0x8, addend: 0x0, symName: __ZNK12_GLOBAL__N_19FixedTest8generateERN3ppc6randomE, symObjAddr: 0x5C178, symBinAddr: 0x10005E52C, symSize: 0x51C }
  - { offsetInCU: 0x2B3D6, offset: 0x2B3D6, size: 0x8, addend: 0x0, symName: __ZN12_GLOBAL__N_19FixedTestD2Ev, symObjAddr: 0x5C694, symBinAddr: 0x10005EA48, symSize: 0xDC }
  - { offsetInCU: 0x2B403, offset: 0x2B403, size: 0x8, addend: 0x0, symName: __ZNSt3__16vectorIfNS_9allocatorIfEEEC1ERKS3_, symObjAddr: 0x5C770, symBinAddr: 0x10005EB24, symSize: 0x80 }
  - { offsetInCU: 0x2B43E, offset: 0x2B43E, size: 0x8, addend: 0x0, symName: __ZNSt3__16vectorIfNS_9allocatorIfEEEC2ERKS3_, symObjAddr: 0x5C7F0, symBinAddr: 0x10005EBA4, symSize: 0x4C0 }
  - { offsetInCU: 0x2B47B, offset: 0x2B47B, size: 0x8, addend: 0x0, symName: __ZNSt3__116allocator_traitsINS_9allocatorIfEEE37select_on_container_copy_constructionB8ue170006IS2_vvEES2_RKS2_, symObjAddr: 0x5CCB0, symBinAddr: 0x10005F064, symSize: 0x10 }
  - { offsetInCU: 0x2B4AA, offset: 0x2B4AA, size: 0x8, addend: 0x0, symName: __ZNSt3__16vectorIfNS_9allocatorIfEEE16__init_with_sizeB8ue170006IPfS5_EEvT_T0_m, symObjAddr: 0x5CCC0, symBinAddr: 0x10005F074, symSize: 0x3EC }
  - { offsetInCU: 0x2B526, offset: 0x2B526, size: 0x8, addend: 0x0, symName: __ZNSt3__16vectorIfNS_9allocatorIfEEE18__construct_at_endIPfS5_EEvT_T0_m, symObjAddr: 0x5D0AC, symBinAddr: 0x10005F460, symSize: 0x494 }
  - { offsetInCU: 0x2B5C0, offset: 0x2B5C0, size: 0x8, addend: 0x0, symName: __ZNSt3__119__unwrap_range_implIPfS1_E8__unwrapB8ue170006ES1_S1_, symObjAddr: 0x5DB3C, symBinAddr: 0x10005FEF0, symSize: 0x30C }
  - { offsetInCU: 0x2B5F9, offset: 0x2B5F9, size: 0x8, addend: 0x0, symName: __ZNSt3__14pairIPfS1_EC1B8ue170006IS1_S1_LPv0EEEOT_OT0_, symObjAddr: 0x5DE48, symBinAddr: 0x1000601FC, symSize: 0x88 }
  - { offsetInCU: 0x2B657, offset: 0x2B657, size: 0x8, addend: 0x0, symName: __ZNSt3__14pairIPfS1_EC2B8ue170006IS1_S1_LPv0EEEOT_OT0_, symObjAddr: 0x5DED0, symBinAddr: 0x100060284, symSize: 0x210 }
  - { offsetInCU: 0x2B6BF, offset: 0x2B6BF, size: 0x8, addend: 0x0, symName: __ZNKSt3__114__copy_trivialclB8ue170006IffLi0EEENS_4pairIPT_PT0_EES4_S4_S6_, symObjAddr: 0x5EE20, symBinAddr: 0x1000611D4, symSize: 0x25C }
  - { offsetInCU: 0x2B72B, offset: 0x2B72B, size: 0x8, addend: 0x0, symName: __ZNSt3__14pairIPfS1_EC1B8ue170006IRS1_S1_LPv0EEEOT_OT0_, symObjAddr: 0x5FACC, symBinAddr: 0x100061E80, symSize: 0x88 }
  - { offsetInCU: 0x2B789, offset: 0x2B789, size: 0x8, addend: 0x0, symName: __ZNSt3__14pairIPfS1_EC2B8ue170006IRS1_S1_LPv0EEEOT_OT0_, symObjAddr: 0x5FB54, symBinAddr: 0x100061F08, symSize: 0x210 }
  - { offsetInCU: 0x2B7E7, offset: 0x2B7E7, size: 0x8, addend: 0x0, symName: __ZNSt3__119__unwrap_range_implIPfS1_E8__rewrapB8ue170006ES1_S1_, symObjAddr: 0x5FD64, symBinAddr: 0x100062118, symSize: 0x2C }
  - { offsetInCU: 0x2B818, offset: 0x2B818, size: 0x8, addend: 0x0, symName: __ZNSt3__118__unwrap_iter_implIPfLb1EE8__unwrapB8ue170006ES1_, symObjAddr: 0x5FD90, symBinAddr: 0x100062144, symSize: 0x24 }
  - { offsetInCU: 0x2B83B, offset: 0x2B83B, size: 0x8, addend: 0x0, symName: __ZNSt3__118__unwrap_iter_implIPfLb1EE8__rewrapB8ue170006ES1_S1_, symObjAddr: 0x5FDB4, symBinAddr: 0x100062168, symSize: 0x13C }
  - { offsetInCU: 0x2B86C, offset: 0x2B86C, size: 0x8, addend: 0x0, symName: __ZNSt3__110unique_ptrIN12_GLOBAL__N_19FixedTestENS_14default_deleteIS2_EEEC2B8ue170006ILb1EvEEPS2_, symObjAddr: 0x5FEF0, symBinAddr: 0x1000622A4, symSize: 0x2B8 }
  - { offsetInCU: 0x2B8B4, offset: 0x2B8B4, size: 0x8, addend: 0x0, symName: __ZNSt3__117__compressed_pairIPN12_GLOBAL__N_19FixedTestENS_14default_deleteIS2_EEEC1B8ue170006IRS3_NS_16__value_init_tagEEEOT_OT0_, symObjAddr: 0x601A8, symBinAddr: 0x10006255C, symSize: 0x88 }
  - { offsetInCU: 0x2B90C, offset: 0x2B90C, size: 0x8, addend: 0x0, symName: __ZNSt3__117__compressed_pairIPN12_GLOBAL__N_19FixedTestENS_14default_deleteIS2_EEEC2B8ue170006IRS3_NS_16__value_init_tagEEEOT_OT0_, symObjAddr: 0x60230, symBinAddr: 0x1000625E4, symSize: 0x140 }
  - { offsetInCU: 0x2B964, offset: 0x2B964, size: 0x8, addend: 0x0, symName: __ZNSt3__122__compressed_pair_elemIPN12_GLOBAL__N_19FixedTestELi0ELb0EEC2B8ue170006IRS3_vEEOT_, symObjAddr: 0x60370, symBinAddr: 0x100062724, symSize: 0x144 }
  - { offsetInCU: 0x2B9A6, offset: 0x2B9A6, size: 0x8, addend: 0x0, symName: __ZNSt3__122__compressed_pair_elemINS_14default_deleteIN12_GLOBAL__N_19FixedTestEEELi1ELb1EEC2B8ue170006ENS_16__value_init_tagE, symObjAddr: 0x604B4, symBinAddr: 0x100062868, symSize: 0x54 }
  - { offsetInCU: 0x2B9DB, offset: 0x2B9DB, size: 0x8, addend: 0x0, symName: __ZNSt3__110unique_ptrIN12_GLOBAL__N_110ISTestCaseENS_14default_deleteIS2_EEEC2B8ue170006INS1_9FixedTestENS3_IS7_EEvvEEONS0_IT_T0_EE, symObjAddr: 0x60508, symBinAddr: 0x1000628BC, symSize: 0x320 }
  - { offsetInCU: 0x2BA29, offset: 0x2BA29, size: 0x8, addend: 0x0, symName: __ZNSt3__110unique_ptrIN12_GLOBAL__N_19FixedTestENS_14default_deleteIS2_EEE7releaseB8ue170006Ev, symObjAddr: 0x60828, symBinAddr: 0x100062BDC, symSize: 0x20C }
  - { offsetInCU: 0x2BA5E, offset: 0x2BA5E, size: 0x8, addend: 0x0, symName: __ZNSt3__110unique_ptrIN12_GLOBAL__N_19FixedTestENS_14default_deleteIS2_EEE11get_deleterB8ue170006Ev, symObjAddr: 0x60A34, symBinAddr: 0x100062DE8, symSize: 0xDC }
  - { offsetInCU: 0x2BA90, offset: 0x2BA90, size: 0x8, addend: 0x0, symName: __ZNSt3__117__compressed_pairIPN12_GLOBAL__N_110ISTestCaseENS_14default_deleteIS2_EEEC1B8ue170006IPNS1_9FixedTestENS4_IS8_EEEEOT_OT0_, symObjAddr: 0x60B10, symBinAddr: 0x100062EC4, symSize: 0x88 }
  - { offsetInCU: 0x2BAE8, offset: 0x2BAE8, size: 0x8, addend: 0x0, symName: __ZNSt3__117__compressed_pairIPN12_GLOBAL__N_19FixedTestENS_14default_deleteIS2_EEE5firstB8ue170006Ev, symObjAddr: 0x60B98, symBinAddr: 0x100062F4C, symSize: 0x124 }
  - { offsetInCU: 0x2BB0E, offset: 0x2BB0E, size: 0x8, addend: 0x0, symName: __ZNSt3__122__compressed_pair_elemIPN12_GLOBAL__N_19FixedTestELi0ELb0EE5__getB8ue170006Ev, symObjAddr: 0x60CBC, symBinAddr: 0x100063070, symSize: 0xAC }
  - { offsetInCU: 0x2BB34, offset: 0x2BB34, size: 0x8, addend: 0x0, symName: __ZNSt3__117__compressed_pairIPN12_GLOBAL__N_19FixedTestENS_14default_deleteIS2_EEE6secondB8ue170006Ev, symObjAddr: 0x60D68, symBinAddr: 0x10006311C, symSize: 0x108 }
  - { offsetInCU: 0x2BB5A, offset: 0x2BB5A, size: 0x8, addend: 0x0, symName: __ZNSt3__122__compressed_pair_elemINS_14default_deleteIN12_GLOBAL__N_19FixedTestEEELi1ELb1EE5__getB8ue170006Ev, symObjAddr: 0x60E70, symBinAddr: 0x100063224, symSize: 0x74 }
  - { offsetInCU: 0x2BB80, offset: 0x2BB80, size: 0x8, addend: 0x0, symName: __ZNSt3__117__compressed_pairIPN12_GLOBAL__N_110ISTestCaseENS_14default_deleteIS2_EEEC2B8ue170006IPNS1_9FixedTestENS4_IS8_EEEEOT_OT0_, symObjAddr: 0x60EE4, symBinAddr: 0x100063298, symSize: 0x170 }
  - { offsetInCU: 0x2BBD8, offset: 0x2BBD8, size: 0x8, addend: 0x0, symName: __ZNSt3__122__compressed_pair_elemIPN12_GLOBAL__N_110ISTestCaseELi0ELb0EEC2B8ue170006IPNS1_9FixedTestEvEEOT_, symObjAddr: 0x61054, symBinAddr: 0x100063408, symSize: 0x184 }
  - { offsetInCU: 0x2BC1A, offset: 0x2BC1A, size: 0x8, addend: 0x0, symName: __ZNSt3__122__compressed_pair_elemINS_14default_deleteIN12_GLOBAL__N_110ISTestCaseEEELi1ELb1EEC2B8ue170006INS1_INS2_9FixedTestEEEvEEOT_, symObjAddr: 0x611D8, symBinAddr: 0x10006358C, symSize: 0xBC }
  - { offsetInCU: 0x2BC5C, offset: 0x2BC5C, size: 0x8, addend: 0x0, symName: __ZNSt3__114default_deleteIN12_GLOBAL__N_110ISTestCaseEEC2B8ue170006INS1_9FixedTestEEERKNS0_IT_EEPNS_9enable_ifIXsr14is_convertibleIPS6_PS2_EE5valueEvE4typeE, symObjAddr: 0x61294, symBinAddr: 0x100063648, symSize: 0x5C }
  - { offsetInCU: 0x2BCA5, offset: 0x2BCA5, size: 0x8, addend: 0x0, symName: __ZNSt3__110unique_ptrIN12_GLOBAL__N_19FixedTestENS_14default_deleteIS2_EEED2B8ue170006Ev, symObjAddr: 0x612F0, symBinAddr: 0x1000636A4, symSize: 0x7C }
  - { offsetInCU: 0x2BCCF, offset: 0x2BCCF, size: 0x8, addend: 0x0, symName: __ZNSt3__110unique_ptrIN12_GLOBAL__N_19FixedTestENS_14default_deleteIS2_EEE5resetB8ue170006EPS2_, symObjAddr: 0x6136C, symBinAddr: 0x100063720, symSize: 0x2B0 }
  - { offsetInCU: 0x2BD13, offset: 0x2BD13, size: 0x8, addend: 0x0, symName: __ZNKSt3__114default_deleteIN12_GLOBAL__N_19FixedTestEEclB8ue170006EPS2_, symObjAddr: 0x6161C, symBinAddr: 0x1000639D0, symSize: 0x1DC }
  - { offsetInCU: 0x2BD47, offset: 0x2BD47, size: 0x8, addend: 0x0, symName: __ZNK12_GLOBAL__N_110ISTestCase8generateEv, symObjAddr: 0x617F8, symBinAddr: 0x100063BAC, symSize: 0x4E8 }
  - { offsetInCU: 0x2BD85, offset: 0x2BD85, size: 0x8, addend: 0x0, symName: __ZN3ppc4perfC1Ev, symObjAddr: 0x61CE4, symBinAddr: 0x100064098, symSize: 0x78 }
  - { offsetInCU: 0x2BDAF, offset: 0x2BDAF, size: 0x8, addend: 0x0, symName: __ZN3ppc4perf5startEv, symObjAddr: 0x61D5C, symBinAddr: 0x100064110, symSize: 0x1A0 }
  - { offsetInCU: 0x2BDD5, offset: 0x2BDD5, size: 0x8, addend: 0x0, symName: __ZN3ppc4perf4stopEv, symObjAddr: 0x61EFC, symBinAddr: 0x1000642B0, symSize: 0x1A0 }
  - { offsetInCU: 0x2BDFB, offset: 0x2BDFB, size: 0x8, addend: 0x0, symName: __ZN3ppc4perf8print_toERNSt3__113basic_ostreamIcNS1_11char_traitsIcEEEE, symObjAddr: 0x6209C, symBinAddr: 0x100064450, symSize: 0x994 }
  - { offsetInCU: 0x2BE98, offset: 0x2BE98, size: 0x8, addend: 0x0, symName: __ZNKSt3__110unique_ptrIN3ppc9fdostreamENS_14default_deleteIS2_EEEdeB8ue170006Ev, symObjAddr: 0x62A30, symBinAddr: 0x100064DE4, symSize: 0x184 }
  - { offsetInCU: 0x2BEBE, offset: 0x2BEBE, size: 0x8, addend: 0x0, symName: __ZN3ppc4perfD1Ev, symObjAddr: 0x62BB8, symBinAddr: 0x100064F6C, symSize: 0x78 }
  - { offsetInCU: 0x2BEEA, offset: 0x2BEEA, size: 0x8, addend: 0x0, symName: __ZL7comparebiiRK6ResultS1_PKf, symObjAddr: 0x62C30, symBinAddr: 0x100064FE4, symSize: 0x2114 }
  - { offsetInCU: 0x2C015, offset: 0x2C015, size: 0x8, addend: 0x0, symName: __ZN12_GLOBAL__N_116TestCaseInstanceD1Ev, symObjAddr: 0x64D44, symBinAddr: 0x1000670F8, symSize: 0x78 }
  - { offsetInCU: 0x2C041, offset: 0x2C041, size: 0x8, addend: 0x0, symName: __ZN3ppc6randomC1Ei, symObjAddr: 0x64DBC, symBinAddr: 0x100067170, symSize: 0x80 }
  - { offsetInCU: 0x2C079, offset: 0x2C079, size: 0x8, addend: 0x0, symName: __ZN3ppc6randomC2Ei, symObjAddr: 0x64E3C, symBinAddr: 0x1000671F0, symSize: 0x32C }
  - { offsetInCU: 0x2C0B3, offset: 0x2C0B3, size: 0x8, addend: 0x0, symName: __ZNSt3__123mersenne_twister_engineIjLm32ELm624ELm397ELm31ELj2567483615ELm11ELj4294967295ELm7ELj2636928640ELm15ELj4022730752ELm18ELj1812433253EEC1B8ue170006Ev, symObjAddr: 0x65168, symBinAddr: 0x10006751C, symSize: 0x7C }
  - { offsetInCU: 0x2C0DD, offset: 0x2C0DD, size: 0x8, addend: 0x0, symName: __ZNSt3__123mersenne_twister_engineIjLm32ELm624ELm397ELm31ELj2567483615ELm11ELj4294967295ELm7ELj2636928640ELm15ELj4022730752ELm18ELj1812433253EEC1B8ue170006Ej, symObjAddr: 0x651E4, symBinAddr: 0x100067598, symSize: 0x80 }
  - { offsetInCU: 0x2C115, offset: 0x2C115, size: 0x8, addend: 0x0, symName: __ZNSt3__123mersenne_twister_engineIjLm32ELm624ELm397ELm31ELj2567483615ELm11ELj4294967295ELm7ELj2636928640ELm15ELj4022730752ELm18ELj1812433253EEC2B8ue170006Ej, symObjAddr: 0x65264, symBinAddr: 0x100067618, symSize: 0x80 }
  - { offsetInCU: 0x2C14D, offset: 0x2C14D, size: 0x8, addend: 0x0, symName: __ZNSt3__123mersenne_twister_engineIjLm32ELm624ELm397ELm31ELj2567483615ELm11ELj4294967295ELm7ELj2636928640ELm15ELj4022730752ELm18ELj1812433253EE4seedEj, symObjAddr: 0x652E4, symBinAddr: 0x100067698, symSize: 0x6FC }
  - { offsetInCU: 0x2C1A1, offset: 0x2C1A1, size: 0x8, addend: 0x0, symName: __ZNSt3__123mersenne_twister_engineIjLm32ELm624ELm397ELm31ELj2567483615ELm11ELj4294967295ELm7ELj2636928640ELm15ELj4022730752ELm18ELj1812433253EE8__rshiftB8ue170006ILm30EEENS_9enable_ifIXltT_L_ZNS1_3_DtEEEjE4typeEj, symObjAddr: 0x659E0, symBinAddr: 0x100067D94, symSize: 0x50 }
  - { offsetInCU: 0x2C1CE, offset: 0x2C1CE, size: 0x8, addend: 0x0, symName: __ZN3ppc4perfC2Ev, symObjAddr: 0x65A30, symBinAddr: 0x100067DE4, symSize: 0xCA0 }
  - { offsetInCU: 0x2C20E, offset: 0x2C20E, size: 0x8, addend: 0x0, symName: __ZN3ppc4perf3addERKNSt3__112basic_stringIcNS1_11char_traitsIcEENS1_9allocatorIcEEEE, symObjAddr: 0x666D0, symBinAddr: 0x100068A84, symSize: 0x1318 }
  - { offsetInCU: 0x2C271, offset: 0x2C271, size: 0x8, addend: 0x0, symName: __ZNSt3__110unique_ptrIN3ppc9StopwatchENS_14default_deleteIS2_EEED1B8ue170006Ev, symObjAddr: 0x679E8, symBinAddr: 0x100069D9C, symSize: 0x78 }
  - { offsetInCU: 0x2C29B, offset: 0x2C29B, size: 0x8, addend: 0x0, symName: __ZNKSt3__110unique_ptrIN3ppc9StopwatchENS_14default_deleteIS2_EEEptB8ue170006Ev, symObjAddr: 0x67A60, symBinAddr: 0x100069E14, symSize: 0x13C }
  - { offsetInCU: 0x2C2C1, offset: 0x2C2C1, size: 0x8, addend: 0x0, symName: __ZN3ppc9Stopwatch11add_counterERKNSt3__112basic_stringIcNS1_11char_traitsIcEENS1_9allocatorIcEEEE, symObjAddr: 0x67B9C, symBinAddr: 0x100069F50, symSize: 0x370 }
  - { offsetInCU: 0x2C381, offset: 0x2C381, size: 0x8, addend: 0x0, symName: __ZNKSt3__112system_error4codeB8ue170006Ev, symObjAddr: 0x68290, symBinAddr: 0x10006A644, symSize: 0x13C }
  - { offsetInCU: 0x2C3A7, offset: 0x2C3A7, size: 0x8, addend: 0x0, symName: __ZNSt3__110error_codeC1B8ue170006EiRKNS_14error_categoryE, symObjAddr: 0x683CC, symBinAddr: 0x10006A780, symSize: 0x88 }
  - { offsetInCU: 0x2C3ED, offset: 0x2C3ED, size: 0x8, addend: 0x0, symName: __ZNKSt3__117__compressed_pairIPN3ppc9StopwatchENS_14default_deleteIS2_EEE5firstB8ue170006Ev, symObjAddr: 0x68454, symBinAddr: 0x10006A808, symSize: 0x124 }
  - { offsetInCU: 0x2C413, offset: 0x2C413, size: 0x8, addend: 0x0, symName: __ZNKSt3__122__compressed_pair_elemIPN3ppc9StopwatchELi0ELb0EE5__getB8ue170006Ev, symObjAddr: 0x68578, symBinAddr: 0x10006A92C, symSize: 0xAC }
  - { offsetInCU: 0x2C439, offset: 0x2C439, size: 0x8, addend: 0x0, symName: __ZNKSt3__110error_code8categoryB8ue170006Ev, symObjAddr: 0x68624, symBinAddr: 0x10006A9D8, symSize: 0xF8 }
  - { offsetInCU: 0x2C45F, offset: 0x2C45F, size: 0x8, addend: 0x0, symName: __ZNKSt3__114error_categoryeqB8ue170006ERKS0_, symObjAddr: 0x6871C, symBinAddr: 0x10006AAD0, symSize: 0x7C }
  - { offsetInCU: 0x2C493, offset: 0x2C493, size: 0x8, addend: 0x0, symName: __ZNKSt3__110error_code5valueB8ue170006Ev, symObjAddr: 0x68798, symBinAddr: 0x10006AB4C, symSize: 0xD4 }
  - { offsetInCU: 0x2C4B9, offset: 0x2C4B9, size: 0x8, addend: 0x0, symName: __ZNSt3__110error_codeC2B8ue170006EiRKNS_14error_categoryE, symObjAddr: 0x6886C, symBinAddr: 0x10006AC20, symSize: 0x138 }
  - { offsetInCU: 0x2C4FF, offset: 0x2C4FF, size: 0x8, addend: 0x0, symName: __ZNSt3__110unique_ptrIN3ppc9StopwatchENS_14default_deleteIS2_EEED2B8ue170006Ev, symObjAddr: 0x689A4, symBinAddr: 0x10006AD58, symSize: 0x7C }
  - { offsetInCU: 0x2C529, offset: 0x2C529, size: 0x8, addend: 0x0, symName: __ZNSt3__110unique_ptrIN3ppc9StopwatchENS_14default_deleteIS2_EEE5resetB8ue170006EPS2_, symObjAddr: 0x68A20, symBinAddr: 0x10006ADD4, symSize: 0x2B0 }
  - { offsetInCU: 0x2C56D, offset: 0x2C56D, size: 0x8, addend: 0x0, symName: __ZNSt3__117__compressed_pairIPN3ppc9StopwatchENS_14default_deleteIS2_EEE5firstB8ue170006Ev, symObjAddr: 0x68CD0, symBinAddr: 0x10006B084, symSize: 0x124 }
  - { offsetInCU: 0x2C593, offset: 0x2C593, size: 0x8, addend: 0x0, symName: __ZNSt3__117__compressed_pairIPN3ppc9StopwatchENS_14default_deleteIS2_EEE6secondB8ue170006Ev, symObjAddr: 0x68DF4, symBinAddr: 0x10006B1A8, symSize: 0x108 }
  - { offsetInCU: 0x2C5B9, offset: 0x2C5B9, size: 0x8, addend: 0x0, symName: __ZNKSt3__114default_deleteIN3ppc9StopwatchEEclB8ue170006EPS2_, symObjAddr: 0x68EFC, symBinAddr: 0x10006B2B0, symSize: 0x1DC }
  - { offsetInCU: 0x2C5ED, offset: 0x2C5ED, size: 0x8, addend: 0x0, symName: __ZNSt3__122__compressed_pair_elemIPN3ppc9StopwatchELi0ELb0EE5__getB8ue170006Ev, symObjAddr: 0x690D8, symBinAddr: 0x10006B48C, symSize: 0xAC }
  - { offsetInCU: 0x2C613, offset: 0x2C613, size: 0x8, addend: 0x0, symName: __ZNSt3__122__compressed_pair_elemINS_14default_deleteIN3ppc9StopwatchEEELi1ELb1EE5__getB8ue170006Ev, symObjAddr: 0x69184, symBinAddr: 0x10006B538, symSize: 0x74 }
  - { offsetInCU: 0x2C639, offset: 0x2C639, size: 0x8, addend: 0x0, symName: __ZN3ppc9Stopwatch5startEv, symObjAddr: 0x691F8, symBinAddr: 0x10006B5AC, symSize: 0x6B0 }
  - { offsetInCU: 0x2C660, offset: 0x2C660, size: 0x8, addend: 0x0, symName: __ZN3ppc9Stopwatch4stopEv, symObjAddr: 0x698A8, symBinAddr: 0x10006BC5C, symSize: 0x840 }
  - { offsetInCU: 0x2C699, offset: 0x2C699, size: 0x8, addend: 0x0, symName: __ZNKSt3__16chrono10time_pointINS0_12steady_clockENS0_8durationIxNS_5ratioILl1ELl1000000000EEEEEE16time_since_epochB8ue170006Ev, symObjAddr: 0x6A478, symBinAddr: 0x10006C82C, symSize: 0x248 }
  - { offsetInCU: 0x2C6C0, offset: 0x2C6C0, size: 0x8, addend: 0x0, symName: __ZN3ppc9Stopwatch12get_countersEv, symObjAddr: 0x6A6C0, symBinAddr: 0x10006CA74, symSize: 0x32C }
  - { offsetInCU: 0x2C6E6, offset: 0x2C6E6, size: 0x8, addend: 0x0, symName: __ZNSt3__113unordered_mapINS_12basic_stringIcNS_11char_traitsIcEENS_9allocatorIcEEEElNS_4hashIS6_EENS_8equal_toIS6_EENS4_INS_4pairIKS6_lEEEEE5beginB8ue170006Ev, symObjAddr: 0x6A9EC, symBinAddr: 0x10006CDA0, symSize: 0x340 }
  - { offsetInCU: 0x2C70D, offset: 0x2C70D, size: 0x8, addend: 0x0, symName: __ZNSt3__113unordered_mapINS_12basic_stringIcNS_11char_traitsIcEENS_9allocatorIcEEEElNS_4hashIS6_EENS_8equal_toIS6_EENS4_INS_4pairIKS6_lEEEEE3endB8ue170006Ev, symObjAddr: 0x6AD2C, symBinAddr: 0x10006D0E0, symSize: 0x340 }
  - { offsetInCU: 0x2C734, offset: 0x2C734, size: 0x8, addend: 0x0, symName: __ZNKSt3__119__hash_map_iteratorINS_15__hash_iteratorIPNS_11__hash_nodeINS_17__hash_value_typeINS_12basic_stringIcNS_11char_traitsIcEENS_9allocatorIcEEEElEEPvEEEEEdeB8ue170006Ev, symObjAddr: 0x6B12C, symBinAddr: 0x10006D4E0, symSize: 0x144 }
  - { offsetInCU: 0x2C75A, offset: 0x2C75A, size: 0x8, addend: 0x0, symName: __ZNSt3__119__hash_map_iteratorINS_15__hash_iteratorIPNS_11__hash_nodeINS_17__hash_value_typeINS_12basic_stringIcNS_11char_traitsIcEENS_9allocatorIcEEEElEEPvEEEEEppB8ue170006Ev, symObjAddr: 0x6B51C, symBinAddr: 0x10006D8D0, symSize: 0xF8 }
  - { offsetInCU: 0x2C780, offset: 0x2C780, size: 0x8, addend: 0x0, symName: __ZNSt3__112__hash_tableINS_17__hash_value_typeINS_12basic_stringIcNS_11char_traitsIcEENS_9allocatorIcEEEElEENS_22__unordered_map_hasherIS7_S8_NS_4hashIS7_EENS_8equal_toIS7_EELb1EEENS_21__unordered_map_equalIS7_S8_SD_SB_Lb1EEENS5_IS8_EEE5beginEv, symObjAddr: 0x6B614, symBinAddr: 0x10006D9C8, symSize: 0x354 }
  - { offsetInCU: 0x2C7A9, offset: 0x2C7A9, size: 0x8, addend: 0x0, symName: __ZNSt3__119__hash_map_iteratorINS_15__hash_iteratorIPNS_11__hash_nodeINS_17__hash_value_typeINS_12basic_stringIcNS_11char_traitsIcEENS_9allocatorIcEEEElEEPvEEEEEC1B8ue170006ESE_, symObjAddr: 0x6B968, symBinAddr: 0x10006DD1C, symSize: 0x28C }
  - { offsetInCU: 0x2C7E7, offset: 0x2C7E7, size: 0x8, addend: 0x0, symName: __ZNSt3__119__hash_map_iteratorINS_15__hash_iteratorIPNS_11__hash_nodeINS_17__hash_value_typeINS_12basic_stringIcNS_11char_traitsIcEENS_9allocatorIcEEEElEEPvEEEEEC2B8ue170006ESE_, symObjAddr: 0x6BBF4, symBinAddr: 0x10006DFA8, symSize: 0x25C }
  - { offsetInCU: 0x2C825, offset: 0x2C825, size: 0x8, addend: 0x0, symName: __ZNSt3__112__hash_tableINS_17__hash_value_typeINS_12basic_stringIcNS_11char_traitsIcEENS_9allocatorIcEEEElEENS_22__unordered_map_hasherIS7_S8_NS_4hashIS7_EENS_8equal_toIS7_EELb1EEENS_21__unordered_map_equalIS7_S8_SD_SB_Lb1EEENS5_IS8_EEE3endEv, symObjAddr: 0x6BE50, symBinAddr: 0x10006E204, symSize: 0x240 }
  - { offsetInCU: 0x2C84E, offset: 0x2C84E, size: 0x8, addend: 0x0, symName: __ZNSt3__115__hash_iteratorIPNS_11__hash_nodeINS_17__hash_value_typeINS_12basic_stringIcNS_11char_traitsIcEENS_9allocatorIcEEEElEEPvEEEppB8ue170006Ev, symObjAddr: 0x6C1A4, symBinAddr: 0x10006E558, symSize: 0x1F0 }
  - { offsetInCU: 0x2C874, offset: 0x2C874, size: 0x8, addend: 0x0, symName: __ZNKSt3__117__compressed_pairIPN3ppc9fdostreamENS_14default_deleteIS2_EEE5firstB8ue170006Ev, symObjAddr: 0x6C394, symBinAddr: 0x10006E748, symSize: 0x124 }
  - { offsetInCU: 0x2C89A, offset: 0x2C89A, size: 0x8, addend: 0x0, symName: __ZNKSt3__122__compressed_pair_elemIPN3ppc9fdostreamELi0ELb0EE5__getB8ue170006Ev, symObjAddr: 0x6C4B8, symBinAddr: 0x10006E86C, symSize: 0xAC }
  - { offsetInCU: 0x2C8C0, offset: 0x2C8C0, size: 0x8, addend: 0x0, symName: __ZN3ppc4perfD2Ev, symObjAddr: 0x6C564, symBinAddr: 0x10006E918, symSize: 0x78 }
  - { offsetInCU: 0x2C8EC, offset: 0x2C8EC, size: 0x8, addend: 0x0, symName: __ZL5equalRA3_KfS1_, symObjAddr: 0x6C5DC, symBinAddr: 0x10006E990, symSize: 0x7B4 }
  - { offsetInCU: 0x2C927, offset: 0x2C927, size: 0x8, addend: 0x0, symName: __ZL10total_costiiPKfRK6Result, symObjAddr: 0x6CD90, symBinAddr: 0x10006F144, symSize: 0xFF0 }
  - { offsetInCU: 0x2CA2A, offset: 0x2CA2A, size: 0x8, addend: 0x0, symName: __ZNKSt3__110unique_ptrIN3ppc9fdostreamENS_14default_deleteIS2_EEEptB8ue170006Ev, symObjAddr: 0x6DD80, symBinAddr: 0x100070134, symSize: 0x13C }
  - { offsetInCU: 0x2CA50, offset: 0x2CA50, size: 0x8, addend: 0x0, symName: __ZNSt3__18ios_base9precisionB8ue170006El, symObjAddr: 0x6DEBC, symBinAddr: 0x100070270, symSize: 0x1F8 }
  - { offsetInCU: 0x2CA96, offset: 0x2CA96, size: 0x8, addend: 0x0, symName: __ZNSt3__113basic_ostreamIcNS_11char_traitsIcEEElsB8ue170006EPFRNS_8ios_baseES5_E, symObjAddr: 0x6E0B4, symBinAddr: 0x100070468, symSize: 0x248 }
  - { offsetInCU: 0x2CACA, offset: 0x2CACA, size: 0x8, addend: 0x0, symName: __ZL4dumpRK6Result, symObjAddr: 0x6E42C, symBinAddr: 0x1000707E0, symSize: 0xB68 }
  - { offsetInCU: 0x2CAF3, offset: 0x2CAF3, size: 0x8, addend: 0x0, symName: __ZL4dumpRA3_Kf, symObjAddr: 0x6EF94, symBinAddr: 0x100071348, symSize: 0x9BC }
  - { offsetInCU: 0x2CB1C, offset: 0x2CB1C, size: 0x8, addend: 0x0, symName: __ZL5closeff, symObjAddr: 0x6FA78, symBinAddr: 0x100071E2C, symSize: 0x48 }
  - { offsetInCU: 0x2CB57, offset: 0x2CB57, size: 0x8, addend: 0x0, symName: __ZNSt3__18ios_base4setfB8ue170006Ejj, symObjAddr: 0x6FAC0, symBinAddr: 0x100071E74, symSize: 0x2D0 }
  - { offsetInCU: 0x2CBAC, offset: 0x2CBAC, size: 0x8, addend: 0x0, symName: __ZNSt3__18ios_base6unsetfB8ue170006Ej, symObjAddr: 0x6FD90, symBinAddr: 0x100072144, symSize: 0x178 }
  - { offsetInCU: 0x2CBE3, offset: 0x2CBE3, size: 0x8, addend: 0x0, symName: __ZN12_GLOBAL__N_116TestCaseInstanceD2Ev, symObjAddr: 0x6FF08, symBinAddr: 0x1000722BC, symSize: 0x7C }
  - { offsetInCU: 0x2CC0F, offset: 0x2CC0F, size: 0x8, addend: 0x0, symName: __ZNKSt3__117__compressed_pairIPN12_GLOBAL__N_110ISTestCaseENS_14default_deleteIS2_EEE5firstB8ue170006Ev, symObjAddr: 0x6FF84, symBinAddr: 0x100072338, symSize: 0x124 }
  - { offsetInCU: 0x2CC35, offset: 0x2CC35, size: 0x8, addend: 0x0, symName: __ZNKSt3__122__compressed_pair_elemIPN12_GLOBAL__N_110ISTestCaseELi0ELb0EE5__getB8ue170006Ev, symObjAddr: 0x700A8, symBinAddr: 0x10007245C, symSize: 0xAC }
  - { offsetInCU: 0x2CC5B, offset: 0x2CC5B, size: 0x8, addend: 0x0, symName: __ZNSt3__110unique_ptrIN12_GLOBAL__N_110ISTestCaseENS_14default_deleteIS2_EEED2B8ue170006Ev, symObjAddr: 0x70154, symBinAddr: 0x100072508, symSize: 0x7C }
  - { offsetInCU: 0x2CC85, offset: 0x2CC85, size: 0x8, addend: 0x0, symName: __ZNSt3__110unique_ptrIN12_GLOBAL__N_110ISTestCaseENS_14default_deleteIS2_EEE5resetB8ue170006EPS2_, symObjAddr: 0x701D0, symBinAddr: 0x100072584, symSize: 0x2B0 }
  - { offsetInCU: 0x2CCC9, offset: 0x2CCC9, size: 0x8, addend: 0x0, symName: __ZNSt3__117__compressed_pairIPN12_GLOBAL__N_110ISTestCaseENS_14default_deleteIS2_EEE5firstB8ue170006Ev, symObjAddr: 0x70480, symBinAddr: 0x100072834, symSize: 0x124 }
  - { offsetInCU: 0x2CCEF, offset: 0x2CCEF, size: 0x8, addend: 0x0, symName: __ZNSt3__117__compressed_pairIPN12_GLOBAL__N_110ISTestCaseENS_14default_deleteIS2_EEE6secondB8ue170006Ev, symObjAddr: 0x705A4, symBinAddr: 0x100072958, symSize: 0x108 }
  - { offsetInCU: 0x2CD15, offset: 0x2CD15, size: 0x8, addend: 0x0, symName: __ZNKSt3__114default_deleteIN12_GLOBAL__N_110ISTestCaseEEclB8ue170006EPS2_, symObjAddr: 0x706AC, symBinAddr: 0x100072A60, symSize: 0x1DC }
  - { offsetInCU: 0x2CD49, offset: 0x2CD49, size: 0x8, addend: 0x0, symName: __ZNSt3__122__compressed_pair_elemIPN12_GLOBAL__N_110ISTestCaseELi0ELb0EE5__getB8ue170006Ev, symObjAddr: 0x70888, symBinAddr: 0x100072C3C, symSize: 0xAC }
  - { offsetInCU: 0x2CD6F, offset: 0x2CD6F, size: 0x8, addend: 0x0, symName: __ZNSt3__122__compressed_pair_elemINS_14default_deleteIN12_GLOBAL__N_110ISTestCaseEEELi1ELb1EE5__getB8ue170006Ev, symObjAddr: 0x70934, symBinAddr: 0x100072CE8, symSize: 0x74 }
  - { offsetInCU: 0x2CD95, offset: 0x2CD95, size: 0x8, addend: 0x0, symName: __ZNSt3__114basic_ifstreamIcNS_11char_traitsIcEEED2Ev, symObjAddr: 0x709A8, symBinAddr: 0x100072D5C, symSize: 0x1E8 }
  - { offsetInCU: 0x2CDCF, offset: 0x2CDCF, size: 0x8, addend: 0x0, symName: __ZTv0_n24_NSt3__114basic_ifstreamIcNS_11char_traitsIcEEED1Ev, symObjAddr: 0x70B90, symBinAddr: 0x100072F44, symSize: 0xB0 }
  - { offsetInCU: 0x3B, offset: 0x2D297, size: 0x8, addend: 0x0, symName: _.str, symObjAddr: 0x4EC0, symBinAddr: 0x100083BC0, symSize: 0x0 }
  - { offsetInCU: 0x6B, offset: 0x2D2C7, size: 0x8, addend: 0x0, symName: _.str.1, symObjAddr: 0x4EE0, symBinAddr: 0x100083BE0, symSize: 0x0 }
  - { offsetInCU: 0x88, offset: 0x2D2E4, size: 0x8, addend: 0x0, symName: _.str.2, symObjAddr: 0x4F00, symBinAddr: 0x100083C00, symSize: 0x0 }
  - { offsetInCU: 0xA5, offset: 0x2D301, size: 0x8, addend: 0x0, symName: _.str.3, symObjAddr: 0x4F20, symBinAddr: 0x100083C20, symSize: 0x0 }
  - { offsetInCU: 0x2C49, offset: 0x2FEA5, size: 0x8, addend: 0x0, symName: __Z7segmentiiPKf, symObjAddr: 0x0, symBinAddr: 0x1000730CC, symSize: 0x364 }
...
